ARM GAS  C:\Users\ADMIN\AppData\Local\Temp\ccQbCJXd.s 			page 1


   1              		.syntax unified
   2              		.cpu cortex-m0
   3              		.fpu softvfp
   4              		.eabi_attribute 20, 1
   5              		.eabi_attribute 21, 1
   6              		.eabi_attribute 23, 3
   7              		.eabi_attribute 24, 1
   8              		.eabi_attribute 25, 1
   9              		.eabi_attribute 26, 1
  10              		.eabi_attribute 30, 1
  11              		.eabi_attribute 34, 0
  12              		.eabi_attribute 18, 4
  13              		.thumb
  14              		.syntax unified
  15              		.file	"adc_validation.c"
  16              		.text
  17              	.Ltext0:
  18              		.cfi_sections	.debug_frame
  19              		.section	.text.adc_validation_init,"ax",%progbits
  20              		.align	2
  21              		.global	adc_validation_init
  22              		.code	16
  23              		.thumb_func
  24              		.type	adc_validation_init, %function
  25              	adc_validation_init:
  26              	.LFB34:
  27              		.file 1 "adc_validation.c"
   1:adc_validation.c **** #include "lab.h"
   2:adc_validation.c **** 
   3:adc_validation.c **** int y = 0;
   4:adc_validation.c **** int x = 0;
   5:adc_validation.c **** 
   6:adc_validation.c **** void adc_validation_init(void){
  28              		.loc 1 6 0
  29              		.cfi_startproc
  30              		@ args = 0, pretend = 0, frame = 0
  31              		@ frame_needed = 0, uses_anonymous_args = 0
  32 0000 10B5     		push	{r4, lr}
  33              		.cfi_def_cfa_offset 8
  34              		.cfi_offset 4, -8
  35              		.cfi_offset 14, -4
   7:adc_validation.c ****     ADC_Start();
  36              		.loc 1 7 0
  37 0002 FFF7FEFF 		bl	ADC_Start
  38              	.LVL0:
   8:adc_validation.c ****     ADC_StartConvert();
  39              		.loc 1 8 0
  40 0006 FFF7FEFF 		bl	ADC_StartConvert
  41              	.LVL1:
   9:adc_validation.c ****     PWM_X_Start();
  42              		.loc 1 9 0
  43 000a FFF7FEFF 		bl	PWM_X_Start
  44              	.LVL2:
  10:adc_validation.c ****     PWM_Y_Start();
  45              		.loc 1 10 0
  46 000e FFF7FEFF 		bl	PWM_Y_Start
  47              	.LVL3:
ARM GAS  C:\Users\ADMIN\AppData\Local\Temp\ccQbCJXd.s 			page 2


  11:adc_validation.c **** }
  48              		.loc 1 11 0
  49              		@ sp needed
  50 0012 10BD     		pop	{r4, pc}
  51              		.cfi_endproc
  52              	.LFE34:
  53              		.size	adc_validation_init, .-adc_validation_init
  54              		.section	.text.adc_get_led_position,"ax",%progbits
  55              		.align	2
  56              		.global	adc_get_led_position
  57              		.code	16
  58              		.thumb_func
  59              		.type	adc_get_led_position, %function
  60              	adc_get_led_position:
  61              	.LFB35:
  12:adc_validation.c **** 
  13:adc_validation.c **** void adc_get_led_position(void){
  62              		.loc 1 13 0
  63              		.cfi_startproc
  64              		@ args = 0, pretend = 0, frame = 0
  65              		@ frame_needed = 0, uses_anonymous_args = 0
  66 0000 10B5     		push	{r4, lr}
  67              		.cfi_def_cfa_offset 8
  68              		.cfi_offset 4, -8
  69              		.cfi_offset 14, -4
  14:adc_validation.c ****     x = ADC_GetResult16(0);
  70              		.loc 1 14 0
  71 0002 0020     		movs	r0, #0
  72 0004 FFF7FEFF 		bl	ADC_GetResult16
  73              	.LVL4:
  74 0008 064C     		ldr	r4, .L3
  75 000a 2060     		str	r0, [r4]
  15:adc_validation.c ****     y = ADC_GetResult16(1);   
  76              		.loc 1 15 0
  77 000c 0120     		movs	r0, #1
  78 000e FFF7FEFF 		bl	ADC_GetResult16
  79              	.LVL5:
  80 0012 6060     		str	r0, [r4, #4]
  16:adc_validation.c ****     
  17:adc_validation.c ****     PWM_X_WriteCompare(x);
  81              		.loc 1 17 0
  82 0014 2068     		ldr	r0, [r4]
  83 0016 FFF7FEFF 		bl	PWM_X_WriteCompare
  84              	.LVL6:
  18:adc_validation.c ****     PWM_Y_WriteCompare(y); 
  85              		.loc 1 18 0
  86 001a 6068     		ldr	r0, [r4, #4]
  87 001c FFF7FEFF 		bl	PWM_Y_WriteCompare
  88              	.LVL7:
  19:adc_validation.c **** }...
  89              		.loc 1 19 0
  90              		@ sp needed
  91 0020 10BD     		pop	{r4, pc}
  92              	.L4:
  93 0022 C046     		.align	2
  94              	.L3:
  95 0024 00000000 		.word	.LANCHOR0
ARM GAS  C:\Users\ADMIN\AppData\Local\Temp\ccQbCJXd.s 			page 3


  96              		.cfi_endproc
  97              	.LFE35:
  98              		.size	adc_get_led_position, .-adc_get_led_position
  99              		.global	x
 100              		.global	y
 101              		.bss
 102              		.align	2
 103              		.set	.LANCHOR0,. + 0
 104              		.type	x, %object
 105              		.size	x, 4
 106              	x:
 107 0000 00000000 		.space	4
 108              		.type	y, %object
 109              		.size	y, 4
 110              	y:
 111 0004 00000000 		.space	4
 112              		.text
 113              	.Letext0:
 114              		.file 2 "Generated_Source\\PSoC4/ADC.h"
 115              		.file 3 "Generated_Source\\PSoC4/PWM_X.h"
 116              		.file 4 "Generated_Source\\PSoC4/PWM_Y.h"