ARM GAS  C:\Users\ADMIN\AppData\Local\Temp\ccLw7ReJ.s 			page 1


   1              		.syntax unified
   2              		.cpu cortex-m0
   3              		.fpu softvfp
   4              		.eabi_attribute 20, 1
   5              		.eabi_attribute 21, 1
   6              		.eabi_attribute 23, 3
   7              		.eabi_attribute 24, 1
   8              		.eabi_attribute 25, 1
   9              		.eabi_attribute 26, 1
  10              		.eabi_attribute 30, 1
  11              		.eabi_attribute 34, 0
  12              		.eabi_attribute 18, 4
  13              		.thumb
  14              		.syntax unified
  15              		.file	"lcd_degree.c"
  16              		.text
  17              	.Ltext0:
  18              		.cfi_sections	.debug_frame
  19              		.section	.text.lcd_init,"ax",%progbits
  20              		.align	2
  21              		.global	lcd_init
  22              		.code	16
  23              		.thumb_func
  24              		.type	lcd_init, %function
  25              	lcd_init:
  26              	.LFB35:
  27              		.file 1 "lcd_degree.c"
   1:lcd_degree.c  **** #include "lab.h"
   2:lcd_degree.c  **** #include "stdio.h"
   3:lcd_degree.c  **** 
   4:lcd_degree.c  **** static char buf1[17];
   5:lcd_degree.c  **** static char buf2[17];
   6:lcd_degree.c  **** 
   7:lcd_degree.c  **** extern int x;
   8:lcd_degree.c  **** extern int y;
   9:lcd_degree.c  **** 
  10:lcd_degree.c  **** void lcd_init(void){
  28              		.loc 1 10 0
  29              		.cfi_startproc
  30              		@ args = 0, pretend = 0, frame = 0
  31              		@ frame_needed = 0, uses_anonymous_args = 0
  32 0000 10B5     		push	{r4, lr}
  33              		.cfi_def_cfa_offset 8
  34              		.cfi_offset 4, -8
  35              		.cfi_offset 14, -4
  11:lcd_degree.c  ****     LCD_Start();
  36              		.loc 1 11 0
  37 0002 FFF7FEFF 		bl	LCD_Start
  38              	.LVL0:
  12:lcd_degree.c  ****     LCD_ClearDisplay();
  39              		.loc 1 12 0
  40 0006 0120     		movs	r0, #1
  41 0008 FFF7FEFF 		bl	LCD_WriteControl
  42              	.LVL1:
  13:lcd_degree.c  **** }
  43              		.loc 1 13 0
  44              		@ sp needed
ARM GAS  C:\Users\ADMIN\AppData\Local\Temp\ccLw7ReJ.s 			page 2


  45 000c 10BD     		pop	{r4, pc}
  46              		.cfi_endproc
  47              	.LFE35:
  48              		.size	lcd_init, .-lcd_init
  49 000e C046     		.section	.text.lcd_degree,"ax",%progbits
  50              		.align	2
  51              		.global	lcd_degree
  52              		.code	16
  53              		.thumb_func
  54              		.type	lcd_degree, %function
  55              	lcd_degree:
  56              	.LFB36:
  14:lcd_degree.c  **** 
  15:lcd_degree.c  **** void lcd_degree(void){
  57              		.loc 1 15 0
  58              		.cfi_startproc
  59              		@ args = 0, pretend = 0, frame = 0
  60              		@ frame_needed = 0, uses_anonymous_args = 0
  61 0000 10B5     		push	{r4, lr}
  62              		.cfi_def_cfa_offset 8
  63              		.cfi_offset 4, -8
  64              		.cfi_offset 14, -4
  16:lcd_degree.c  ****     LCD_ClearDisplay();
  65              		.loc 1 16 0
  66 0002 0120     		movs	r0, #1
  67 0004 FFF7FEFF 		bl	LCD_WriteControl
  68              	.LVL2:
  17:lcd_degree.c  ****     sprintf(buf1,"Degrees");
  69              		.loc 1 17 0
  70 0008 0E4C     		ldr	r4, .L3
  71 000a 0F4B     		ldr	r3, .L3+4
  72 000c 2200     		movs	r2, r4
  73 000e 03CB     		ldmia	r3!, {r0, r1}
  74 0010 03C2     		stmia	r2!, {r0, r1}
  18:lcd_degree.c  ****     LCD_Position(0, 0);
  75              		.loc 1 18 0
  76 0012 0021     		movs	r1, #0
  77 0014 0020     		movs	r0, #0
  78 0016 FFF7FEFF 		bl	LCD_Position
  79              	.LVL3:
  19:lcd_degree.c  ****     LCD_PrintString(buf1);
  80              		.loc 1 19 0
  81 001a 2000     		movs	r0, r4
  82 001c FFF7FEFF 		bl	LCD_PrintString
  83              	.LVL4:
  20:lcd_degree.c  ****     sprintf(buf2,"x=%d y=%d",x,y);
  84              		.loc 1 20 0
  85 0020 0A4B     		ldr	r3, .L3+8
  86 0022 1B68     		ldr	r3, [r3]
  87 0024 0A4A     		ldr	r2, .L3+12
  88 0026 1268     		ldr	r2, [r2]
  89 0028 1434     		adds	r4, r4, #20
  90 002a 0A49     		ldr	r1, .L3+16
  91 002c 2000     		movs	r0, r4
  92 002e FFF7FEFF 		bl	sprintf
  93              	.LVL5:
  21:lcd_degree.c  ****     LCD_Position(1, 0);
ARM GAS  C:\Users\ADMIN\AppData\Local\Temp\ccLw7ReJ.s 			page 3


  94              		.loc 1 21 0
  95 0032 0021     		movs	r1, #0
  96 0034 0120     		movs	r0, #1
  97 0036 FFF7FEFF 		bl	LCD_Position
  98              	.LVL6:
  22:lcd_degree.c  ****     LCD_PrintString(buf2);
  99              		.loc 1 22 0
 100 003a 2000     		movs	r0, r4
 101 003c FFF7FEFF 		bl	LCD_PrintString
 102              	.LVL7:
  23:lcd_degree.c  **** }
 103              		.loc 1 23 0
 104              		@ sp needed
 105 0040 10BD     		pop	{r4, pc}
 106              	.L4:
 107 0042 C046     		.align	2
 108              	.L3:
 109 0044 00000000 		.word	.LANCHOR0
 110 0048 00000000 		.word	.LC1
 111 004c 00000000 		.word	y
 112 0050 00000000 		.word	x
 113 0054 08000000 		.word	.LC5
 114              		.cfi_endproc
 115              	.LFE36:
 116              		.size	lcd_degree, .-lcd_degree
 117              		.section	.rodata.str1.4,"aMS",%progbits,1
 118              		.align	2
 119              	.LC1:
 120 0000 44656772 		.ascii	"Degrees\000"
 120      65657300 
 121              	.LC5:
 122 0008 783D2564 		.ascii	"x=%d y=%d\000"
 122      20793D25 
 122      6400
 123              		.bss
 124              		.align	2
 125              		.set	.LANCHOR0,. + 0
 126              		.type	buf1, %object
 127              		.size	buf1, 17
 128              	buf1:
 129 0000 00000000 		.space	17
 129      00000000 
 129      00000000 
 129      00000000 
 129      00
 130 0011 000000   		.space	3
 131              		.type	buf2, %object
 132              		.size	buf2, 17
 133              	buf2:
 134 0014 00000000 		.space	17
 134      00000000 
 134      00000000 
 134      00000000 
 134      00
 135              		.text
 136              	.Letext0:
 137              		.file 2 "Generated_Source\\PSoC4/LCD.h"
ARM GAS  C:\Users\ADMIN\AppData\Local\Temp\ccLw7ReJ.s 			page 4


 138              		.file 3 "c:\\program files (x86)\\cypress\\psoc creator\\4.2\\psoc creator\\import\\gnu\\arm\\5.4.