ARM GAS  C:\Users\ADMIN\AppData\Local\Temp\ccX51MWf.s 			page 1


   1              		.syntax unified
   2              		.cpu cortex-m0
   3              		.fpu softvfp
   4              		.eabi_attribute 20, 1
   5              		.eabi_attribute 21, 1
   6              		.eabi_attribute 23, 3
   7              		.eabi_attribute 24, 1
   8              		.eabi_attribute 25, 1
   9              		.eabi_attribute 26, 1
  10              		.eabi_attribute 30, 1
  11              		.eabi_attribute 34, 0
  12              		.eabi_attribute 18, 4
  13              		.thumb
  14              		.syntax unified
  15              		.file	"main.c"
  16              		.text
  17              	.Ltext0:
  18              		.cfi_sections	.debug_frame
  19              		.section	.text.Timer_Handler,"ax",%progbits
  20              		.align	2
  21              		.global	Timer_Handler
  22              		.code	16
  23              		.thumb_func
  24              		.type	Timer_Handler, %function
  25              	Timer_Handler:
  26              	.LFB34:
  27              		.file 1 "main.c"
   1:main.c        **** #include "project.h"
   2:main.c        **** 
   3:main.c        **** void algorithm_1(void);
   4:main.c        **** void algorithm_2(void);
   5:main.c        **** 
   6:main.c        **** volatile int time = 0;
   7:main.c        **** volatile int number_algorithm = 1;
   8:main.c        **** 
   9:main.c        **** CY_ISR(Timer_Handler){
  28              		.loc 1 9 0
  29              		.cfi_startproc
  30              		@ args = 0, pretend = 0, frame = 0
  31              		@ frame_needed = 0, uses_anonymous_args = 0
  32 0000 10B5     		push	{r4, lr}
  33              		.cfi_def_cfa_offset 8
  34              		.cfi_offset 4, -8
  35              		.cfi_offset 14, -4
  10:main.c        ****     time++;
  36              		.loc 1 10 0
  37 0002 044A     		ldr	r2, .L2
  38 0004 1368     		ldr	r3, [r2]
  39 0006 0133     		adds	r3, r3, #1
  40 0008 1360     		str	r3, [r2]
  11:main.c        ****     Timer_ClearInterrupt(Timer_INTR_MASK_TC);
  41              		.loc 1 11 0
  42 000a 0120     		movs	r0, #1
  43 000c FFF7FEFF 		bl	Timer_ClearInterrupt
  44              	.LVL0:
  12:main.c        **** }
  45              		.loc 1 12 0
ARM GAS  C:\Users\ADMIN\AppData\Local\Temp\ccX51MWf.s 			page 2


  46              		@ sp needed
  47 0010 10BD     		pop	{r4, pc}
  48              	.L3:
  49 0012 C046     		.align	2
  50              	.L2:
  51 0014 00000000 		.word	.LANCHOR0
  52              		.cfi_endproc
  53              	.LFE34:
  54              		.size	Timer_Handler, .-Timer_Handler
  55              		.section	.text.SW_Handler,"ax",%progbits
  56              		.align	2
  57              		.global	SW_Handler
  58              		.code	16
  59              		.thumb_func
  60              		.type	SW_Handler, %function
  61              	SW_Handler:
  62              	.LFB35:
  13:main.c        **** 
  14:main.c        **** CY_ISR(SW_Handler){
  63              		.loc 1 14 0
  64              		.cfi_startproc
  65              		@ args = 0, pretend = 0, frame = 0
  66              		@ frame_needed = 0, uses_anonymous_args = 0
  67 0000 10B5     		push	{r4, lr}
  68              		.cfi_def_cfa_offset 8
  69              		.cfi_offset 4, -8
  70              		.cfi_offset 14, -4
  15:main.c        ****     number_algorithm = !number_algorithm;
  71              		.loc 1 15 0
  72 0002 044A     		ldr	r2, .L5
  73 0004 1368     		ldr	r3, [r2]
  74 0006 5942     		rsbs	r1, r3, #0
  75 0008 4B41     		adcs	r3, r3, r1
  76 000a 1360     		str	r3, [r2]
  16:main.c        ****     SW_ClearInterrupt();
  77              		.loc 1 16 0
  78 000c FFF7FEFF 		bl	SW_ClearInterrupt
  79              	.LVL1:
  17:main.c        **** }
  80              		.loc 1 17 0
  81              		@ sp needed
  82 0010 10BD     		pop	{r4, pc}
  83              	.L6:
  84 0012 C046     		.align	2
  85              	.L5:
  86 0014 00000000 		.word	.LANCHOR1
  87              		.cfi_endproc
  88              	.LFE35:
  89              		.size	SW_Handler, .-SW_Handler
  90              		.section	.text.algorithm_1,"ax",%progbits
  91              		.align	2
  92              		.global	algorithm_1
  93              		.code	16
  94              		.thumb_func
  95              		.type	algorithm_1, %function
  96              	algorithm_1:
  97              	.LFB37:
ARM GAS  C:\Users\ADMIN\AppData\Local\Temp\ccX51MWf.s 			page 3


  18:main.c        **** 
  19:main.c        **** int main(void)
  20:main.c        **** {
  21:main.c        ****     CyGlobalIntEnable; /* Enable global interrupts. */
  22:main.c        ****     
  23:main.c        ****     Timer_Start();
  24:main.c        ****     Timer_Int_StartEx(Timer_Handler);
  25:main.c        ****     SW_Int_StartEx(SW_Handler);
  26:main.c        ****     /* Place your initialization/startup code here (e.g. MyInst_Start()) */
  27:main.c        **** 
  28:main.c        ****     for(;;)
  29:main.c        ****     {   
  30:main.c        ****         if(20 == time){
  31:main.c        ****             time = 0;
  32:main.c        ****         }else{
  33:main.c        ****             if(1 == number_algorithm){
  34:main.c        ****                 algorithm_1();
  35:main.c        ****             }else if(0 == number_algorithm){
  36:main.c        ****                 algorithm_2();
  37:main.c        ****             }    
  38:main.c        ****         }        
  39:main.c        ****     }
  40:main.c        **** }
  41:main.c        **** 
  42:main.c        **** void algorithm_1(){
  98              		.loc 1 42 0
  99              		.cfi_startproc
 100              		@ args = 0, pretend = 0, frame = 0
 101              		@ frame_needed = 0, uses_anonymous_args = 0
 102 0000 10B5     		push	{r4, lr}
 103              		.cfi_def_cfa_offset 8
 104              		.cfi_offset 4, -8
 105              		.cfi_offset 14, -4
  43:main.c        ****     Pin_Green_Write(0);
 106              		.loc 1 43 0
 107 0002 0020     		movs	r0, #0
 108 0004 FFF7FEFF 		bl	Pin_Green_Write
 109              	.LVL2:
  44:main.c        ****     Pin_Yellow_Write(0);
 110              		.loc 1 44 0
 111 0008 0020     		movs	r0, #0
 112 000a FFF7FEFF 		bl	Pin_Yellow_Write
 113              	.LVL3:
  45:main.c        ****     Pin_Red_Write(0);
 114              		.loc 1 45 0
 115 000e 0020     		movs	r0, #0
 116 0010 FFF7FEFF 		bl	Pin_Red_Write
 117              	.LVL4:
  46:main.c        ****     if(6 == time || 8 == time){
 118              		.loc 1 46 0
 119 0014 1C4B     		ldr	r3, .L15
 120 0016 1B68     		ldr	r3, [r3]
 121 0018 062B     		cmp	r3, #6
 122 001a 03D0     		beq	.L8
 123              		.loc 1 46 0 is_stmt 0 discriminator 1
 124 001c 1A4B     		ldr	r3, .L15
 125 001e 1B68     		ldr	r3, [r3]
ARM GAS  C:\Users\ADMIN\AppData\Local\Temp\ccX51MWf.s 			page 4


 126 0020 082B     		cmp	r3, #8
 127 0022 06D1     		bne	.L9
 128              	.L8:
  47:main.c        ****         Pin_Yellow_Write(1);
 129              		.loc 1 47 0 is_stmt 1
 130 0024 0120     		movs	r0, #1
 131 0026 FFF7FEFF 		bl	Pin_Yellow_Write
 132              	.LVL5:
  48:main.c        ****         Pin_Red_Write(1);
 133              		.loc 1 48 0
 134 002a 0120     		movs	r0, #1
 135 002c FFF7FEFF 		bl	Pin_Red_Write
 136              	.LVL6:
 137 0030 28E0     		b	.L7
 138              	.L9:
  49:main.c        ****     }else if(time < 8) {
 139              		.loc 1 49 0
 140 0032 154B     		ldr	r3, .L15
 141 0034 1B68     		ldr	r3, [r3]
 142 0036 072B     		cmp	r3, #7
 143 0038 03DC     		bgt	.L11
  50:main.c        ****         Pin_Red_Write(1);
 144              		.loc 1 50 0
 145 003a 0120     		movs	r0, #1
 146 003c FFF7FEFF 		bl	Pin_Red_Write
 147              	.LVL7:
 148 0040 20E0     		b	.L7
 149              	.L11:
  51:main.c        ****     }else if(8 < time && time < 16) {
 150              		.loc 1 51 0
 151 0042 114B     		ldr	r3, .L15
 152 0044 1B68     		ldr	r3, [r3]
 153 0046 082B     		cmp	r3, #8
 154 0048 07DD     		ble	.L12
 155              		.loc 1 51 0 is_stmt 0 discriminator 1
 156 004a 0F4B     		ldr	r3, .L15
 157 004c 1B68     		ldr	r3, [r3]
 158 004e 0F2B     		cmp	r3, #15
 159 0050 03DC     		bgt	.L12
  52:main.c        ****         Pin_Green_Write(1);
 160              		.loc 1 52 0 is_stmt 1
 161 0052 0120     		movs	r0, #1
 162 0054 FFF7FEFF 		bl	Pin_Green_Write
 163              	.LVL8:
 164 0058 14E0     		b	.L7
 165              	.L12:
  53:main.c        ****     }else if(16 == time || 18 == time) {
 166              		.loc 1 53 0
 167 005a 0B4B     		ldr	r3, .L15
 168 005c 1B68     		ldr	r3, [r3]
 169 005e 102B     		cmp	r3, #16
 170 0060 03D0     		beq	.L13
 171              		.loc 1 53 0 is_stmt 0 discriminator 1
 172 0062 094B     		ldr	r3, .L15
 173 0064 1B68     		ldr	r3, [r3]
 174 0066 122B     		cmp	r3, #18
 175 0068 03D1     		bne	.L14
ARM GAS  C:\Users\ADMIN\AppData\Local\Temp\ccX51MWf.s 			page 5


 176              	.L13:
  54:main.c        ****         Pin_Yellow_Write(1);
 177              		.loc 1 54 0 is_stmt 1
 178 006a 0120     		movs	r0, #1
 179 006c FFF7FEFF 		bl	Pin_Yellow_Write
 180              	.LVL9:
 181 0070 08E0     		b	.L7
 182              	.L14:
  55:main.c        ****     }else{
  56:main.c        ****         Pin_Green_Write(0);
 183              		.loc 1 56 0
 184 0072 0020     		movs	r0, #0
 185 0074 FFF7FEFF 		bl	Pin_Green_Write
 186              	.LVL10:
  57:main.c        ****         Pin_Yellow_Write(0);
 187              		.loc 1 57 0
 188 0078 0020     		movs	r0, #0
 189 007a FFF7FEFF 		bl	Pin_Yellow_Write
 190              	.LVL11:
  58:main.c        ****         Pin_Red_Write(0);
 191              		.loc 1 58 0
 192 007e 0020     		movs	r0, #0
 193 0080 FFF7FEFF 		bl	Pin_Red_Write
 194              	.LVL12:
 195              	.L7:
  59:main.c        ****     }
  60:main.c        **** }
 196              		.loc 1 60 0
 197              		@ sp needed
 198 0084 10BD     		pop	{r4, pc}
 199              	.L16:
 200 0086 C046     		.align	2
 201              	.L15:
 202 0088 00000000 		.word	.LANCHOR0
 203              		.cfi_endproc
 204              	.LFE37:
 205              		.size	algorithm_1, .-algorithm_1
 206              		.section	.text.algorithm_2,"ax",%progbits
 207              		.align	2
 208              		.global	algorithm_2
 209              		.code	16
 210              		.thumb_func
 211              		.type	algorithm_2, %function
 212              	algorithm_2:
 213              	.LFB38:
  61:main.c        **** 
  62:main.c        **** void algorithm_2(){
 214              		.loc 1 62 0
 215              		.cfi_startproc
 216              		@ args = 0, pretend = 0, frame = 0
 217              		@ frame_needed = 0, uses_anonymous_args = 0
 218 0000 10B5     		push	{r4, lr}
 219              		.cfi_def_cfa_offset 8
 220              		.cfi_offset 4, -8
 221              		.cfi_offset 14, -4
  63:main.c        ****     Pin_Green_Write(0);
 222              		.loc 1 63 0
ARM GAS  C:\Users\ADMIN\AppData\Local\Temp\ccX51MWf.s 			page 6


 223 0002 0020     		movs	r0, #0
 224 0004 FFF7FEFF 		bl	Pin_Green_Write
 225              	.LVL13:
  64:main.c        ****     Pin_Yellow_Write(0);
 226              		.loc 1 64 0
 227 0008 0020     		movs	r0, #0
 228 000a FFF7FEFF 		bl	Pin_Yellow_Write
 229              	.LVL14:
  65:main.c        ****     Pin_Red_Write(0);
 230              		.loc 1 65 0
 231 000e 0020     		movs	r0, #0
 232 0010 FFF7FEFF 		bl	Pin_Red_Write
 233              	.LVL15:
  66:main.c        ****     if(6 == time || 8 == time){
 234              		.loc 1 66 0
 235 0014 1C4B     		ldr	r3, .L25
 236 0016 1B68     		ldr	r3, [r3]
 237 0018 062B     		cmp	r3, #6
 238 001a 03D0     		beq	.L18
 239              		.loc 1 66 0 is_stmt 0 discriminator 1
 240 001c 1A4B     		ldr	r3, .L25
 241 001e 1B68     		ldr	r3, [r3]
 242 0020 082B     		cmp	r3, #8
 243 0022 06D1     		bne	.L19
 244              	.L18:
  67:main.c        ****         Pin_Yellow_Write(1);
 245              		.loc 1 67 0 is_stmt 1
 246 0024 0120     		movs	r0, #1
 247 0026 FFF7FEFF 		bl	Pin_Yellow_Write
 248              	.LVL16:
  68:main.c        ****         Pin_Green_Write(1);
 249              		.loc 1 68 0
 250 002a 0120     		movs	r0, #1
 251 002c FFF7FEFF 		bl	Pin_Green_Write
 252              	.LVL17:
 253 0030 28E0     		b	.L17
 254              	.L19:
  69:main.c        ****     }else if(time < 8) {
 255              		.loc 1 69 0
 256 0032 154B     		ldr	r3, .L25
 257 0034 1B68     		ldr	r3, [r3]
 258 0036 072B     		cmp	r3, #7
 259 0038 03DC     		bgt	.L21
  70:main.c        ****         Pin_Green_Write(1);
 260              		.loc 1 70 0
 261 003a 0120     		movs	r0, #1
 262 003c FFF7FEFF 		bl	Pin_Green_Write
 263              	.LVL18:
 264 0040 20E0     		b	.L17
 265              	.L21:
  71:main.c        ****     }else if(8 < time && time < 16) {
 266              		.loc 1 71 0
 267 0042 114B     		ldr	r3, .L25
 268 0044 1B68     		ldr	r3, [r3]
 269 0046 082B     		cmp	r3, #8
 270 0048 07DD     		ble	.L22
 271              		.loc 1 71 0 is_stmt 0 discriminator 1
ARM GAS  C:\Users\ADMIN\AppData\Local\Temp\ccX51MWf.s 			page 7


 272 004a 0F4B     		ldr	r3, .L25
 273 004c 1B68     		ldr	r3, [r3]
 274 004e 0F2B     		cmp	r3, #15
 275 0050 03DC     		bgt	.L22
  72:main.c        ****         Pin_Red_Write(1);
 276              		.loc 1 72 0 is_stmt 1
 277 0052 0120     		movs	r0, #1
 278 0054 FFF7FEFF 		bl	Pin_Red_Write
 279              	.LVL19:
 280 0058 14E0     		b	.L17
 281              	.L22:
  73:main.c        ****     }else if(16 == time || 18 == time) {
 282              		.loc 1 73 0
 283 005a 0B4B     		ldr	r3, .L25
 284 005c 1B68     		ldr	r3, [r3]
 285 005e 102B     		cmp	r3, #16
 286 0060 03D0     		beq	.L23
 287              		.loc 1 73 0 is_stmt 0 discriminator 1
 288 0062 094B     		ldr	r3, .L25
 289 0064 1B68     		ldr	r3, [r3]
 290 0066 122B     		cmp	r3, #18
 291 0068 03D1     		bne	.L24
 292              	.L23:
  74:main.c        ****         Pin_Yellow_Write(1);
 293              		.loc 1 74 0 is_stmt 1
 294 006a 0120     		movs	r0, #1
 295 006c FFF7FEFF 		bl	Pin_Yellow_Write
 296              	.LVL20:
 297 0070 08E0     		b	.L17
 298              	.L24:
  75:main.c        ****     }else{
  76:main.c        ****         Pin_Green_Write(0);
 299              		.loc 1 76 0
 300 0072 0020     		movs	r0, #0
 301 0074 FFF7FEFF 		bl	Pin_Green_Write
 302              	.LVL21:
  77:main.c        ****         Pin_Yellow_Write(0);
 303              		.loc 1 77 0
 304 0078 0020     		movs	r0, #0
 305 007a FFF7FEFF 		bl	Pin_Yellow_Write
 306              	.LVL22:
  78:main.c        ****         Pin_Red_Write(0);
 307              		.loc 1 78 0
 308 007e 0020     		movs	r0, #0
 309 0080 FFF7FEFF 		bl	Pin_Red_Write
 310              	.LVL23:
 311              	.L17:
  79:main.c        ****     }
  80:main.c        **** }...
 312              		.loc 1 80 0
 313              		@ sp needed
 314 0084 10BD     		pop	{r4, pc}
 315              	.L26:
 316 0086 C046     		.align	2
 317              	.L25:
 318 0088 00000000 		.word	.LANCHOR0
 319              		.cfi_endproc
ARM GAS  C:\Users\ADMIN\AppData\Local\Temp\ccX51MWf.s 			page 8


 320              	.LFE38:
 321              		.size	algorithm_2, .-algorithm_2
 322              		.section	.text.main,"ax",%progbits
 323              		.align	2
 324              		.global	main
 325              		.code	16
 326              		.thumb_func
 327              		.type	main, %function
 328              	main:
 329              	.LFB36:
  20:main.c        **** {
 330              		.loc 1 20 0
 331              		.cfi_startproc
 332              		@ Volatile: function does not return.
 333              		@ args = 0, pretend = 0, frame = 0
 334              		@ frame_needed = 0, uses_anonymous_args = 0
 335 0000 10B5     		push	{r4, lr}
 336              		.cfi_def_cfa_offset 8
 337              		.cfi_offset 4, -8
 338              		.cfi_offset 14, -4
  21:main.c        ****     CyGlobalIntEnable; /* Enable global interrupts. */
 339              		.loc 1 21 0
 340              		.syntax divided
 341              	@ 21 "main.c" 1
 342 0002 62B6     		CPSIE   i
 343              	@ 0 "" 2
  23:main.c        ****     Timer_Start();
 344              		.loc 1 23 0
 345              		.thumb
 346              		.syntax unified
 347 0004 FFF7FEFF 		bl	Timer_Start
 348              	.LVL24:
  24:main.c        ****     Timer_Int_StartEx(Timer_Handler);
 349              		.loc 1 24 0
 350 0008 0D48     		ldr	r0, .L32
 351 000a FFF7FEFF 		bl	Timer_Int_StartEx
 352              	.LVL25:
  25:main.c        ****     SW_Int_StartEx(SW_Handler);
 353              		.loc 1 25 0
 354 000e 0D48     		ldr	r0, .L32+4
 355 0010 FFF7FEFF 		bl	SW_Int_StartEx
 356              	.LVL26:
 357              	.L28:
  30:main.c        ****         if(20 == time){
 358              		.loc 1 30 0
 359 0014 0C4B     		ldr	r3, .L32+8
 360 0016 1B68     		ldr	r3, [r3]
 361 0018 142B     		cmp	r3, #20
 362 001a 03D1     		bne	.L29
  31:main.c        ****             time = 0;
 363              		.loc 1 31 0
 364 001c 0022     		movs	r2, #0
 365 001e 0A4B     		ldr	r3, .L32+8
 366 0020 1A60     		str	r2, [r3]
 367 0022 F7E7     		b	.L28
 368              	.L29:
  33:main.c        ****             if(1 == number_algorithm){
ARM GAS  C:\Users\ADMIN\AppData\Local\Temp\ccX51MWf.s 			page 9


 369              		.loc 1 33 0
 370 0024 094B     		ldr	r3, .L32+12
 371 0026 1B68     		ldr	r3, [r3]
 372 0028 012B     		cmp	r3, #1
 373 002a 02D1     		bne	.L31
  34:main.c        ****                 algorithm_1();
 374              		.loc 1 34 0
 375 002c FFF7FEFF 		bl	algorithm_1
 376              	.LVL27:
 377 0030 F0E7     		b	.L28
 378              	.L31:
  35:main.c        ****             }else if(0 == number_algorithm){
 379              		.loc 1 35 0
 380 0032 064B     		ldr	r3, .L32+12
 381 0034 1B68     		ldr	r3, [r3]
 382 0036 002B     		cmp	r3, #0
 383 0038 ECD1     		bne	.L28
  36:main.c        ****                 algorithm_2();
 384              		.loc 1 36 0
 385 003a FFF7FEFF 		bl	algorithm_2
 386              	.LVL28:
 387 003e E9E7     		b	.L28
 388              	.L33:
 389              		.align	2
 390              	.L32:
 391 0040 00000000 		.word	Timer_Handler
 392 0044 00000000 		.word	SW_Handler
 393 0048 00000000 		.word	.LANCHOR0
 394 004c 00000000 		.word	.LANCHOR1
 395              		.cfi_endproc
 396              	.LFE36:
 397              		.size	main, .-main
 398              		.global	number_algorithm
 399              		.global	time
 400              		.data
 401              		.align	2
 402              		.set	.LANCHOR1,. + 0
 403              		.type	number_algorithm, %object
 404              		.size	number_algorithm, 4
 405              	number_algorithm:
 406 0000 01000000 		.word	1
 407              		.bss
 408              		.align	2
 409              		.set	.LANCHOR0,. + 0
 410              		.type	time, %object
 411              		.size	time, 4
 412              	time:
 413 0000 00000000 		.space	4
 414              		.text
 415              	.Letext0:
 416              		.file 2 "Generated_Source\\PSoC4/Timer.h"
 417              		.file 3 "Generated_Source\\PSoC4/SW.h"
 418              		.file 4 "Generated_Source\\PSoC4/Pin_Green.h"
 419              		.file 5 "Generated_Source\\PSoC4/Pin_Yellow.h"
 420              		.file 6 "Generated_Source\\PSoC4/Pin_Red.h"
 421              		.file 7 "Generated_Source\\PSoC4/Timer_Int.h"
 422              		.file 8 "Generated_Source\\PSoC4/SW_Int.h"
ARM GAS  C:\Users\ADMIN\AppData\Local\Temp\ccX51MWf.s 			page 10


 423              		.file 9 "Generated_Source\\PSoC4/cytypes.h"