ARM GAS  C:\Users\ADMIN\AppData\Local\Temp\ccJ6kIbf.s 			page 1


   1              		.syntax unified
   2              		.cpu cortex-m0
   3              		.fpu softvfp
   4              		.eabi_attribute 20, 1
   5              		.eabi_attribute 21, 1
   6              		.eabi_attribute 23, 3
   7              		.eabi_attribute 24, 1
   8              		.eabi_attribute 25, 1
   9              		.eabi_attribute 26, 1
  10              		.eabi_attribute 30, 1
  11              		.eabi_attribute 34, 0
  12              		.eabi_attribute 18, 4
  13              		.thumb
  14              		.syntax unified
  15              		.file	"algorithm.c"
  16              		.text
  17              	.Ltext0:
  18              		.cfi_sections	.debug_frame
  19              		.section	.text.Timer_Handler,"ax",%progbits
  20              		.align	2
  21              		.global	Timer_Handler
  22              		.code	16
  23              		.thumb_func
  24              		.type	Timer_Handler, %function
  25              	Timer_Handler:
  26              	.LFB34:
  27              		.file 1 "algorithm.c"
   1:algorithm.c   **** #include "lab.h"
   2:algorithm.c   **** 
   3:algorithm.c   **** extern uint8 time_red;
   4:algorithm.c   **** extern uint8 time_yellow;
   5:algorithm.c   **** extern uint8 time_green;
   6:algorithm.c   **** 
   7:algorithm.c   **** uint8 sum_time1;
   8:algorithm.c   **** uint8 sum_time2;
   9:algorithm.c   **** 
  10:algorithm.c   **** volatile uint8 time = 0;
  11:algorithm.c   **** volatile uint8 number_algorithm = 1;
  12:algorithm.c   **** 
  13:algorithm.c   **** void algorithm_1(void);
  14:algorithm.c   **** void algorithm_2(void);
  15:algorithm.c   **** 
  16:algorithm.c   **** CY_ISR(Timer_Handler){
  28              		.loc 1 16 0
  29              		.cfi_startproc
  30              		@ args = 0, pretend = 0, frame = 0
  31              		@ frame_needed = 0, uses_anonymous_args = 0
  32 0000 10B5     		push	{r4, lr}
  33              		.cfi_def_cfa_offset 8
  34              		.cfi_offset 4, -8
  35              		.cfi_offset 14, -4
  17:algorithm.c   ****     time++;
  36              		.loc 1 17 0
  37 0002 044A     		ldr	r2, .L2
  38 0004 1378     		ldrb	r3, [r2]
  39 0006 0133     		adds	r3, r3, #1
  40 0008 DBB2     		uxtb	r3, r3
ARM GAS  C:\Users\ADMIN\AppData\Local\Temp\ccJ6kIbf.s 			page 2


  41 000a 1370     		strb	r3, [r2]
  18:algorithm.c   ****     Timer_ClearInterrupt(Timer_INTR_MASK_TC);
  42              		.loc 1 18 0
  43 000c 0120     		movs	r0, #1
  44 000e FFF7FEFF 		bl	Timer_ClearInterrupt
  45              	.LVL0:
  19:algorithm.c   **** }
  46              		.loc 1 19 0
  47              		@ sp needed
  48 0012 10BD     		pop	{r4, pc}
  49              	.L3:
  50              		.align	2
  51              	.L2:
  52 0014 00000000 		.word	.LANCHOR0
  53              		.cfi_endproc
  54              	.LFE34:
  55              		.size	Timer_Handler, .-Timer_Handler
  56              		.section	.text.SW_Handler,"ax",%progbits
  57              		.align	2
  58              		.global	SW_Handler
  59              		.code	16
  60              		.thumb_func
  61              		.type	SW_Handler, %function
  62              	SW_Handler:
  63              	.LFB35:
  20:algorithm.c   **** 
  21:algorithm.c   **** CY_ISR(SW_Handler){
  64              		.loc 1 21 0
  65              		.cfi_startproc
  66              		@ args = 0, pretend = 0, frame = 0
  67              		@ frame_needed = 0, uses_anonymous_args = 0
  68 0000 10B5     		push	{r4, lr}
  69              		.cfi_def_cfa_offset 8
  70              		.cfi_offset 4, -8
  71              		.cfi_offset 14, -4
  22:algorithm.c   ****     time = 0;
  72              		.loc 1 22 0
  73 0002 0022     		movs	r2, #0
  74 0004 054B     		ldr	r3, .L5
  75 0006 1A70     		strb	r2, [r3]
  23:algorithm.c   ****     number_algorithm = !number_algorithm;
  76              		.loc 1 23 0
  77 0008 054A     		ldr	r2, .L5+4
  78 000a 1378     		ldrb	r3, [r2]
  79 000c 5942     		rsbs	r1, r3, #0
  80 000e 4B41     		adcs	r3, r3, r1
  81 0010 DBB2     		uxtb	r3, r3
  82 0012 1370     		strb	r3, [r2]
  24:algorithm.c   ****     SW_ClearInterrupt();
  83              		.loc 1 24 0
  84 0014 FFF7FEFF 		bl	SW_ClearInterrupt
  85              	.LVL1:
  25:algorithm.c   **** }
  86              		.loc 1 25 0
  87              		@ sp needed
  88 0018 10BD     		pop	{r4, pc}
  89              	.L6:
ARM GAS  C:\Users\ADMIN\AppData\Local\Temp\ccJ6kIbf.s 			page 3


  90 001a C046     		.align	2
  91              	.L5:
  92 001c 00000000 		.word	.LANCHOR0
  93 0020 00000000 		.word	.LANCHOR1
  94              		.cfi_endproc
  95              	.LFE35:
  96              		.size	SW_Handler, .-SW_Handler
  97              		.section	.text.algorithm_init,"ax",%progbits
  98              		.align	2
  99              		.global	algorithm_init
 100              		.code	16
 101              		.thumb_func
 102              		.type	algorithm_init, %function
 103              	algorithm_init:
 104              	.LFB36:
  26:algorithm.c   **** 
  27:algorithm.c   **** void algorithm_init(void){
 105              		.loc 1 27 0
 106              		.cfi_startproc
 107              		@ args = 0, pretend = 0, frame = 0
 108              		@ frame_needed = 0, uses_anonymous_args = 0
 109 0000 10B5     		push	{r4, lr}
 110              		.cfi_def_cfa_offset 8
 111              		.cfi_offset 4, -8
 112              		.cfi_offset 14, -4
  28:algorithm.c   ****     Timer_Start();
 113              		.loc 1 28 0
 114 0002 FFF7FEFF 		bl	Timer_Start
 115              	.LVL2:
  29:algorithm.c   ****     Timer_Int_StartEx(Timer_Handler);
 116              		.loc 1 29 0
 117 0006 0348     		ldr	r0, .L8
 118 0008 FFF7FEFF 		bl	Timer_Int_StartEx
 119              	.LVL3:
  30:algorithm.c   ****     SW_Int_StartEx(SW_Handler);
 120              		.loc 1 30 0
 121 000c 0248     		ldr	r0, .L8+4
 122 000e FFF7FEFF 		bl	SW_Int_StartEx
 123              	.LVL4:
  31:algorithm.c   **** }
 124              		.loc 1 31 0
 125              		@ sp needed
 126 0012 10BD     		pop	{r4, pc}
 127              	.L9:
 128              		.align	2
 129              	.L8:
 130 0014 00000000 		.word	Timer_Handler
 131 0018 00000000 		.word	SW_Handler
 132              		.cfi_endproc
 133              	.LFE36:
 134              		.size	algorithm_init, .-algorithm_init
 135              		.section	.text.algorithm_1,"ax",%progbits
 136              		.align	2
 137              		.global	algorithm_1
 138              		.code	16
 139              		.thumb_func
 140              		.type	algorithm_1, %function
ARM GAS  C:\Users\ADMIN\AppData\Local\Temp\ccJ6kIbf.s 			page 4


 141              	algorithm_1:
 142              	.LFB38:
  32:algorithm.c   **** 
  33:algorithm.c   **** void algorithm_definition(void){
  34:algorithm.c   ****     sum_time1=time_red + time_yellow;
  35:algorithm.c   ****     sum_time2 = sum_time1 + time_green;
  36:algorithm.c   ****     
  37:algorithm.c   ****     if(20 == time && 1 == number_algorithm){
  38:algorithm.c   ****         time = 0;
  39:algorithm.c   ****     }else if(sum_time2 == time && 0 == number_algorithm){
  40:algorithm.c   ****         time = 0;
  41:algorithm.c   ****     }else{
  42:algorithm.c   ****         if(1 == number_algorithm){
  43:algorithm.c   ****             algorithm_1();
  44:algorithm.c   ****         }else if(0 == number_algorithm){
  45:algorithm.c   ****             algorithm_2();
  46:algorithm.c   ****         }    
  47:algorithm.c   ****     } 
  48:algorithm.c   **** }
  49:algorithm.c   **** 
  50:algorithm.c   **** void algorithm_1(){
 143              		.loc 1 50 0
 144              		.cfi_startproc
 145              		@ args = 0, pretend = 0, frame = 0
 146              		@ frame_needed = 0, uses_anonymous_args = 0
 147 0000 10B5     		push	{r4, lr}
 148              		.cfi_def_cfa_offset 8
 149              		.cfi_offset 4, -8
 150              		.cfi_offset 14, -4
  51:algorithm.c   ****     Pin_Green_Write(0);
 151              		.loc 1 51 0
 152 0002 0020     		movs	r0, #0
 153 0004 FFF7FEFF 		bl	Pin_Green_Write
 154              	.LVL5:
  52:algorithm.c   ****     Pin_Yellow_Write(0);
 155              		.loc 1 52 0
 156 0008 0020     		movs	r0, #0
 157 000a FFF7FEFF 		bl	Pin_Yellow_Write
 158              	.LVL6:
  53:algorithm.c   ****     Pin_Red_Write(0);
 159              		.loc 1 53 0
 160 000e 0020     		movs	r0, #0
 161 0010 FFF7FEFF 		bl	Pin_Red_Write
 162              	.LVL7:
  54:algorithm.c   ****     if(6 == time || 8 == time){
 163              		.loc 1 54 0
 164 0014 1D4B     		ldr	r3, .L18
 165 0016 1B78     		ldrb	r3, [r3]
 166 0018 062B     		cmp	r3, #6
 167 001a 03D0     		beq	.L11
 168              		.loc 1 54 0 is_stmt 0 discriminator 1
 169 001c 1B4B     		ldr	r3, .L18
 170 001e 1B78     		ldrb	r3, [r3]
 171 0020 082B     		cmp	r3, #8
 172 0022 06D1     		bne	.L12
 173              	.L11:
  55:algorithm.c   ****         Pin_Yellow_Write(1);
ARM GAS  C:\Users\ADMIN\AppData\Local\Temp\ccJ6kIbf.s 			page 5


 174              		.loc 1 55 0 is_stmt 1
 175 0024 0120     		movs	r0, #1
 176 0026 FFF7FEFF 		bl	Pin_Yellow_Write
 177              	.LVL8:
  56:algorithm.c   ****         Pin_Red_Write(1);
 178              		.loc 1 56 0
 179 002a 0120     		movs	r0, #1
 180 002c FFF7FEFF 		bl	Pin_Red_Write
 181              	.LVL9:
 182 0030 2BE0     		b	.L10
 183              	.L12:
  57:algorithm.c   ****     }else if(time < 8) {
 184              		.loc 1 57 0
 185 0032 164B     		ldr	r3, .L18
 186 0034 1B78     		ldrb	r3, [r3]
 187 0036 DBB2     		uxtb	r3, r3
 188 0038 072B     		cmp	r3, #7
 189 003a 03D8     		bhi	.L14
  58:algorithm.c   ****         Pin_Red_Write(1);
 190              		.loc 1 58 0
 191 003c 0120     		movs	r0, #1
 192 003e FFF7FEFF 		bl	Pin_Red_Write
 193              	.LVL10:
 194 0042 22E0     		b	.L10
 195              	.L14:
  59:algorithm.c   ****     }else if(8 < time && time < 16) {
 196              		.loc 1 59 0
 197 0044 114B     		ldr	r3, .L18
 198 0046 1B78     		ldrb	r3, [r3]
 199 0048 DBB2     		uxtb	r3, r3
 200 004a 082B     		cmp	r3, #8
 201 004c 08D9     		bls	.L15
 202              		.loc 1 59 0 is_stmt 0 discriminator 1
 203 004e 0F4B     		ldr	r3, .L18
 204 0050 1B78     		ldrb	r3, [r3]
 205 0052 DBB2     		uxtb	r3, r3
 206 0054 0F2B     		cmp	r3, #15
 207 0056 03D8     		bhi	.L15
  60:algorithm.c   ****         Pin_Green_Write(1);
 208              		.loc 1 60 0 is_stmt 1
 209 0058 0120     		movs	r0, #1
 210 005a FFF7FEFF 		bl	Pin_Green_Write
 211              	.LVL11:
 212 005e 14E0     		b	.L10
 213              	.L15:
  61:algorithm.c   ****     }else if(16 == time || 18 == time) {
 214              		.loc 1 61 0
 215 0060 0A4B     		ldr	r3, .L18
 216 0062 1B78     		ldrb	r3, [r3]
 217 0064 102B     		cmp	r3, #16
 218 0066 03D0     		beq	.L16
 219              		.loc 1 61 0 is_stmt 0 discriminator 1
 220 0068 084B     		ldr	r3, .L18
 221 006a 1B78     		ldrb	r3, [r3]
 222 006c 122B     		cmp	r3, #18
 223 006e 03D1     		bne	.L17
 224              	.L16:
ARM GAS  C:\Users\ADMIN\AppData\Local\Temp\ccJ6kIbf.s 			page 6


  62:algorithm.c   ****         Pin_Yellow_Write(1);
 225              		.loc 1 62 0 is_stmt 1
 226 0070 0120     		movs	r0, #1
 227 0072 FFF7FEFF 		bl	Pin_Yellow_Write
 228              	.LVL12:
 229 0076 08E0     		b	.L10
 230              	.L17:
  63:algorithm.c   ****     }else{
  64:algorithm.c   ****         Pin_Green_Write(0);
 231              		.loc 1 64 0
 232 0078 0020     		movs	r0, #0
 233 007a FFF7FEFF 		bl	Pin_Green_Write
 234              	.LVL13:
  65:algorithm.c   ****         Pin_Yellow_Write(0);
 235              		.loc 1 65 0
 236 007e 0020     		movs	r0, #0
 237 0080 FFF7FEFF 		bl	Pin_Yellow_Write
 238              	.LVL14:
  66:algorithm.c   ****         Pin_Red_Write(0);
 239              		.loc 1 66 0
 240 0084 0020     		movs	r0, #0
 241 0086 FFF7FEFF 		bl	Pin_Red_Write
 242              	.LVL15:
 243              	.L10:
  67:algorithm.c   ****     }
  68:algorithm.c   **** }
 244              		.loc 1 68 0
 245              		@ sp needed
 246 008a 10BD     		pop	{r4, pc}
 247              	.L19:
 248              		.align	2
 249              	.L18:
 250 008c 00000000 		.word	.LANCHOR0
 251              		.cfi_endproc
 252              	.LFE38:
 253              		.size	algorithm_1, .-algorithm_1
 254              		.section	.text.algorithm_2,"ax",%progbits
 255              		.align	2
 256              		.global	algorithm_2
 257              		.code	16
 258              		.thumb_func
 259              		.type	algorithm_2, %function
 260              	algorithm_2:
 261              	.LFB39:
  69:algorithm.c   **** 
  70:algorithm.c   **** void algorithm_2(void){
 262              		.loc 1 70 0
 263              		.cfi_startproc
 264              		@ args = 0, pretend = 0, frame = 0
 265              		@ frame_needed = 0, uses_anonymous_args = 0
 266 0000 10B5     		push	{r4, lr}
 267              		.cfi_def_cfa_offset 8
 268              		.cfi_offset 4, -8
 269              		.cfi_offset 14, -4
  71:algorithm.c   ****     Pin_Green_Write(0);
 270              		.loc 1 71 0
 271 0002 0020     		movs	r0, #0
ARM GAS  C:\Users\ADMIN\AppData\Local\Temp\ccJ6kIbf.s 			page 7


 272 0004 FFF7FEFF 		bl	Pin_Green_Write
 273              	.LVL16:
  72:algorithm.c   ****     Pin_Yellow_Write(0);
 274              		.loc 1 72 0
 275 0008 0020     		movs	r0, #0
 276 000a FFF7FEFF 		bl	Pin_Yellow_Write
 277              	.LVL17:
  73:algorithm.c   ****     Pin_Red_Write(0);
 278              		.loc 1 73 0
 279 000e 0020     		movs	r0, #0
 280 0010 FFF7FEFF 		bl	Pin_Red_Write
 281              	.LVL18:
  74:algorithm.c   ****     if(time < time_red){
 282              		.loc 1 74 0
 283 0014 1B4B     		ldr	r3, .L25
 284 0016 1B78     		ldrb	r3, [r3]
 285 0018 DBB2     		uxtb	r3, r3
 286 001a 1B4A     		ldr	r2, .L25+4
 287 001c 1278     		ldrb	r2, [r2]
 288 001e 9342     		cmp	r3, r2
 289 0020 03D2     		bcs	.L21
  75:algorithm.c   ****         Pin_Red_Write(1);
 290              		.loc 1 75 0
 291 0022 0120     		movs	r0, #1
 292 0024 FFF7FEFF 		bl	Pin_Red_Write
 293              	.LVL19:
 294 0028 2AE0     		b	.L20
 295              	.L21:
  76:algorithm.c   ****     }else if(time_red <= time && time < sum_time1) {
 296              		.loc 1 76 0
 297 002a 164B     		ldr	r3, .L25
 298 002c 1B78     		ldrb	r3, [r3]
 299 002e DBB2     		uxtb	r3, r3
 300 0030 9A42     		cmp	r2, r3
 301 0032 0AD8     		bhi	.L23
 302              		.loc 1 76 0 is_stmt 0 discriminator 1
 303 0034 134B     		ldr	r3, .L25
 304 0036 1B78     		ldrb	r3, [r3]
 305 0038 DBB2     		uxtb	r3, r3
 306 003a 144A     		ldr	r2, .L25+8
 307 003c 1278     		ldrb	r2, [r2]
 308 003e 9342     		cmp	r3, r2
 309 0040 03D2     		bcs	.L23
  77:algorithm.c   ****         Pin_Yellow_Write(1);
 310              		.loc 1 77 0 is_stmt 1
 311 0042 0120     		movs	r0, #1
 312 0044 FFF7FEFF 		bl	Pin_Yellow_Write
 313              	.LVL20:
 314 0048 1AE0     		b	.L20
 315              	.L23:
  78:algorithm.c   ****     }else if(sum_time1 <= time && time < sum_time2) {
 316              		.loc 1 78 0
 317 004a 104B     		ldr	r3, .L25+8
 318 004c 1A78     		ldrb	r2, [r3]
 319 004e 0D4B     		ldr	r3, .L25
 320 0050 1B78     		ldrb	r3, [r3]
 321 0052 DBB2     		uxtb	r3, r3
ARM GAS  C:\Users\ADMIN\AppData\Local\Temp\ccJ6kIbf.s 			page 8


 322 0054 9A42     		cmp	r2, r3
 323 0056 0AD8     		bhi	.L24
 324              		.loc 1 78 0 is_stmt 0 discriminator 1
 325 0058 0A4B     		ldr	r3, .L25
 326 005a 1B78     		ldrb	r3, [r3]
 327 005c DBB2     		uxtb	r3, r3
 328 005e 0C4A     		ldr	r2, .L25+12
 329 0060 1278     		ldrb	r2, [r2]
 330 0062 9342     		cmp	r3, r2
 331 0064 03D2     		bcs	.L24
  79:algorithm.c   ****         Pin_Green_Write(1);
 332              		.loc 1 79 0 is_stmt 1
 333 0066 0120     		movs	r0, #1
 334 0068 FFF7FEFF 		bl	Pin_Green_Write
 335              	.LVL21:
 336 006c 08E0     		b	.L20
 337              	.L24:
  80:algorithm.c   ****     }else{
  81:algorithm.c   ****         Pin_Green_Write(0);
 338              		.loc 1 81 0
 339 006e 0020     		movs	r0, #0
 340 0070 FFF7FEFF 		bl	Pin_Green_Write
 341              	.LVL22:
  82:algorithm.c   ****         Pin_Yellow_Write(0);
 342              		.loc 1 82 0
 343 0074 0020     		movs	r0, #0
 344 0076 FFF7FEFF 		bl	Pin_Yellow_Write
 345              	.LVL23:
  83:algorithm.c   ****         Pin_Red_Write(0);
 346              		.loc 1 83 0
 347 007a 0020     		movs	r0, #0
 348 007c FFF7FEFF 		bl	Pin_Red_Write
 349              	.LVL24:
 350              	.L20:
  84:algorithm.c   ****     }
  85:algorithm.c   **** }...
 351              		.loc 1 85 0
 352              		@ sp needed
 353 0080 10BD     		pop	{r4, pc}
 354              	.L26:
 355 0082 C046     		.align	2
 356              	.L25:
 357 0084 00000000 		.word	.LANCHOR0
 358 0088 00000000 		.word	time_red
 359 008c 00000000 		.word	sum_time1
 360 0090 00000000 		.word	sum_time2
 361              		.cfi_endproc
 362              	.LFE39:
 363              		.size	algorithm_2, .-algorithm_2
 364              		.section	.text.algorithm_definition,"ax",%progbits
 365              		.align	2
 366              		.global	algorithm_definition
 367              		.code	16
 368              		.thumb_func
 369              		.type	algorithm_definition, %function
 370              	algorithm_definition:
 371              	.LFB37:
ARM GAS  C:\Users\ADMIN\AppData\Local\Temp\ccJ6kIbf.s 			page 9


  33:algorithm.c   **** void algorithm_definition(void){
 372              		.loc 1 33 0
 373              		.cfi_startproc
 374              		@ args = 0, pretend = 0, frame = 0
 375              		@ frame_needed = 0, uses_anonymous_args = 0
 376 0000 10B5     		push	{r4, lr}
 377              		.cfi_def_cfa_offset 8
 378              		.cfi_offset 4, -8
 379              		.cfi_offset 14, -4
  34:algorithm.c   ****     sum_time1=time_red + time_yellow;
 380              		.loc 1 34 0
 381 0002 1A4B     		ldr	r3, .L32
 382 0004 1A78     		ldrb	r2, [r3]
 383 0006 1A4B     		ldr	r3, .L32+4
 384 0008 1B78     		ldrb	r3, [r3]
 385 000a D318     		adds	r3, r2, r3
 386 000c DBB2     		uxtb	r3, r3
 387 000e 194A     		ldr	r2, .L32+8
 388 0010 1370     		strb	r3, [r2]
  35:algorithm.c   ****     sum_time2 = sum_time1 + time_green;
 389              		.loc 1 35 0
 390 0012 194A     		ldr	r2, .L32+12
 391 0014 1278     		ldrb	r2, [r2]
 392 0016 9B18     		adds	r3, r3, r2
 393 0018 DBB2     		uxtb	r3, r3
 394 001a 184A     		ldr	r2, .L32+16
 395 001c 1370     		strb	r3, [r2]
  37:algorithm.c   ****     if(20 == time && 1 == number_algorithm){
 396              		.loc 1 37 0
 397 001e 184A     		ldr	r2, .L32+20
 398 0020 1278     		ldrb	r2, [r2]
 399 0022 142A     		cmp	r2, #20
 400 0024 07D1     		bne	.L28
  37:algorithm.c   ****     if(20 == time && 1 == number_algorithm){
 401              		.loc 1 37 0 is_stmt 0 discriminator 1
 402 0026 174A     		ldr	r2, .L32+24
 403 0028 1278     		ldrb	r2, [r2]
 404 002a 012A     		cmp	r2, #1
 405 002c 03D1     		bne	.L28
  38:algorithm.c   ****         time = 0;
 406              		.loc 1 38 0 is_stmt 1
 407 002e 0022     		movs	r2, #0
 408 0030 134B     		ldr	r3, .L32+20
 409 0032 1A70     		strb	r2, [r3]
 410 0034 19E0     		b	.L27
 411              	.L28:
  39:algorithm.c   ****     }else if(sum_time2 == time && 0 == number_algorithm){
 412              		.loc 1 39 0
 413 0036 124A     		ldr	r2, .L32+20
 414 0038 1278     		ldrb	r2, [r2]
 415 003a D2B2     		uxtb	r2, r2
 416 003c 9342     		cmp	r3, r2
 417 003e 07D1     		bne	.L30
  39:algorithm.c   ****     }else if(sum_time2 == time && 0 == number_algorithm){
 418              		.loc 1 39 0 is_stmt 0 discriminator 1
 419 0040 104B     		ldr	r3, .L32+24
 420 0042 1B78     		ldrb	r3, [r3]
ARM GAS  C:\Users\ADMIN\AppData\Local\Temp\ccJ6kIbf.s 			page 10


 421 0044 002B     		cmp	r3, #0
 422 0046 03D1     		bne	.L30
  40:algorithm.c   ****         time = 0;
 423              		.loc 1 40 0 is_stmt 1
 424 0048 0022     		movs	r2, #0
 425 004a 0D4B     		ldr	r3, .L32+20
 426 004c 1A70     		strb	r2, [r3]
 427 004e 0CE0     		b	.L27
 428              	.L30:
  42:algorithm.c   ****         if(1 == number_algorithm){
 429              		.loc 1 42 0
 430 0050 0C4B     		ldr	r3, .L32+24
 431 0052 1B78     		ldrb	r3, [r3]
 432 0054 012B     		cmp	r3, #1
 433 0056 02D1     		bne	.L31
  43:algorithm.c   ****             algorithm_1();
 434              		.loc 1 43 0
 435 0058 FFF7FEFF 		bl	algorithm_1
 436              	.LVL25:
 437 005c 05E0     		b	.L27
 438              	.L31:
  44:algorithm.c   ****         }else if(0 == number_algorithm){
 439              		.loc 1 44 0
 440 005e 094B     		ldr	r3, .L32+24
 441 0060 1B78     		ldrb	r3, [r3]
 442 0062 002B     		cmp	r3, #0
 443 0064 01D1     		bne	.L27
  45:algorithm.c   ****             algorithm_2();
 444              		.loc 1 45 0
 445 0066 FFF7FEFF 		bl	algorithm_2
 446              	.LVL26:
 447              	.L27:
  48:algorithm.c   **** }
 448              		.loc 1 48 0
 449              		@ sp needed
 450 006a 10BD     		pop	{r4, pc}
 451              	.L33:
 452              		.align	2
 453              	.L32:
 454 006c 00000000 		.word	time_red
 455 0070 00000000 		.word	time_yellow
 456 0074 00000000 		.word	sum_time1
 457 0078 00000000 		.word	time_green
 458 007c 00000000 		.word	sum_time2
 459 0080 00000000 		.word	.LANCHOR0
 460 0084 00000000 		.word	.LANCHOR1
 461              		.cfi_endproc
 462              	.LFE37:
 463              		.size	algorithm_definition, .-algorithm_definition
 464              		.global	number_algorithm
 465              		.global	time
 466              		.comm	sum_time2,1,1
 467              		.comm	sum_time1,1,1
 468              		.data
 469              		.set	.LANCHOR1,. + 0
 470              		.type	number_algorithm, %object
 471              		.size	number_algorithm, 1
ARM GAS  C:\Users\ADMIN\AppData\Local\Temp\ccJ6kIbf.s 			page 11


 472              	number_algorithm:
 473 0000 01       		.byte	1
 474              		.bss
 475              		.set	.LANCHOR0,. + 0
 476              		.type	time, %object
 477              		.size	time, 1
 478              	time:
 479 0000 00       		.space	1
 480              		.text
 481              	.Letext0:
 482              		.file 2 "Generated_Source\\PSoC4/cytypes.h"
 483              		.file 3 "Generated_Source\\PSoC4/Timer.h"
 484              		.file 4 "Generated_Source\\PSoC4/SW.h"
 485              		.file 5 "Generated_Source\\PSoC4/Timer_Int.h"
 486              		.file 6 "Generated_Source\\PSoC4/SW_Int.h"
 487              		.file 7 "Generated_Source\\PSoC4/Pin_Green.h"
 488              		.file 8 "Generated_Source\\PSoC4/Pin_Yellow.h"
 489              		.file 9 "Generated_Source\\PSoC4/Pin_Red.h"