ARM GAS  C:\Users\ADMIN\AppData\Local\Temp\ccpY695C.s 			page 1


   1              		.syntax unified
   2              		.cpu cortex-m0
   3              		.fpu softvfp
   4              		.eabi_attribute 20, 1
   5              		.eabi_attribute 21, 1
   6              		.eabi_attribute 23, 3
   7              		.eabi_attribute 24, 1
   8              		.eabi_attribute 25, 1
   9              		.eabi_attribute 26, 1
  10              		.eabi_attribute 30, 1
  11              		.eabi_attribute 34, 0
  12              		.eabi_attribute 18, 4
  13              		.thumb
  14              		.syntax unified
  15              		.file	"lcd_traffic_light.c"
  16              		.text
  17              	.Ltext0:
  18              		.cfi_sections	.debug_frame
  19              		.section	.text.Enc_Sw_Handler,"ax",%progbits
  20              		.align	2
  21              		.global	Enc_Sw_Handler
  22              		.code	16
  23              		.thumb_func
  24              		.type	Enc_Sw_Handler, %function
  25              	Enc_Sw_Handler:
  26              	.LFB35:
  27              		.file 1 "lcd_traffic_light.c"
   1:lcd_traffic_light.c **** #include "lab.h"
   2:lcd_traffic_light.c **** #include "stdio.h"
   3:lcd_traffic_light.c **** 
   4:lcd_traffic_light.c **** extern uint8 sum_time1;
   5:lcd_traffic_light.c **** extern uint8 sum_time2;
   6:lcd_traffic_light.c **** 
   7:lcd_traffic_light.c **** static char buf1[17];
   8:lcd_traffic_light.c **** static char buf2[17];
   9:lcd_traffic_light.c **** 
  10:lcd_traffic_light.c **** extern volatile uint8 time;
  11:lcd_traffic_light.c **** extern volatile uint8 number_algorithm;
  12:lcd_traffic_light.c **** volatile uint8 status_set_color = 0; 
  13:lcd_traffic_light.c **** 
  14:lcd_traffic_light.c **** uint8 time_red = 0;
  15:lcd_traffic_light.c **** uint8 time_yellow = 0;
  16:lcd_traffic_light.c **** uint8 time_green = 0;
  17:lcd_traffic_light.c **** 
  18:lcd_traffic_light.c **** void lcd_time_color(void);
  19:lcd_traffic_light.c **** void lcd_set_red(void);
  20:lcd_traffic_light.c **** void lcd_set_yellow(void);
  21:lcd_traffic_light.c **** void lcd_set_green(void);
  22:lcd_traffic_light.c **** uint8 set_time(void);
  23:lcd_traffic_light.c **** 
  24:lcd_traffic_light.c **** CY_ISR(Enc_Sw_Handler){
  28              		.loc 1 24 0
  29              		.cfi_startproc
  30              		@ args = 0, pretend = 0, frame = 0
  31              		@ frame_needed = 0, uses_anonymous_args = 0
  32 0000 10B5     		push	{r4, lr}
  33              		.cfi_def_cfa_offset 8
ARM GAS  C:\Users\ADMIN\AppData\Local\Temp\ccpY695C.s 			page 2


  34              		.cfi_offset 4, -8
  35              		.cfi_offset 14, -4
  25:lcd_traffic_light.c ****     status_set_color++;
  36              		.loc 1 25 0
  37 0002 044A     		ldr	r2, .L2
  38 0004 1378     		ldrb	r3, [r2]
  39 0006 0133     		adds	r3, r3, #1
  40 0008 DBB2     		uxtb	r3, r3
  41 000a 1370     		strb	r3, [r2]
  26:lcd_traffic_light.c ****     Enc_Sw_ClearInterrupt();
  42              		.loc 1 26 0
  43 000c FFF7FEFF 		bl	Enc_Sw_ClearInterrupt
  44              	.LVL0:
  27:lcd_traffic_light.c **** }
  45              		.loc 1 27 0
  46              		@ sp needed
  47 0010 10BD     		pop	{r4, pc}
  48              	.L3:
  49 0012 C046     		.align	2
  50              	.L2:
  51 0014 00000000 		.word	.LANCHOR0
  52              		.cfi_endproc
  53              	.LFE35:
  54              		.size	Enc_Sw_Handler, .-Enc_Sw_Handler
  55              		.section	.text.lcd_init,"ax",%progbits
  56              		.align	2
  57              		.global	lcd_init
  58              		.code	16
  59              		.thumb_func
  60              		.type	lcd_init, %function
  61              	lcd_init:
  62              	.LFB36:
  28:lcd_traffic_light.c **** 
  29:lcd_traffic_light.c **** void lcd_init(void){
  63              		.loc 1 29 0
  64              		.cfi_startproc
  65              		@ args = 0, pretend = 0, frame = 0
  66              		@ frame_needed = 0, uses_anonymous_args = 0
  67 0000 10B5     		push	{r4, lr}
  68              		.cfi_def_cfa_offset 8
  69              		.cfi_offset 4, -8
  70              		.cfi_offset 14, -4
  30:lcd_traffic_light.c ****     LCD_Start();
  71              		.loc 1 30 0
  72 0002 FFF7FEFF 		bl	LCD_Start
  73              	.LVL1:
  31:lcd_traffic_light.c ****     LCD_ClearDisplay();
  74              		.loc 1 31 0
  75 0006 0120     		movs	r0, #1
  76 0008 FFF7FEFF 		bl	LCD_WriteControl
  77              	.LVL2:
  32:lcd_traffic_light.c ****     sprintf(buf1,"Author");
  78              		.loc 1 32 0
  79 000c 094A     		ldr	r2, .L5
  80 000e 141D     		adds	r4, r2, #4
  81 0010 094B     		ldr	r3, .L5+4
  82 0012 1968     		ldr	r1, [r3]
ARM GAS  C:\Users\ADMIN\AppData\Local\Temp\ccpY695C.s 			page 3


  83 0014 5160     		str	r1, [r2, #4]
  84 0016 9A88     		ldrh	r2, [r3, #4]
  85 0018 A280     		strh	r2, [r4, #4]
  86 001a 9B79     		ldrb	r3, [r3, #6]
  87 001c A371     		strb	r3, [r4, #6]
  33:lcd_traffic_light.c ****     LCD_Position(0, 0);
  88              		.loc 1 33 0
  89 001e 0021     		movs	r1, #0
  90 0020 0020     		movs	r0, #0
  91 0022 FFF7FEFF 		bl	LCD_Position
  92              	.LVL3:
  34:lcd_traffic_light.c ****     LCD_PrintString(buf1);
  93              		.loc 1 34 0
  94 0026 2000     		movs	r0, r4
  95 0028 FFF7FEFF 		bl	LCD_PrintString
  96              	.LVL4:
  35:lcd_traffic_light.c ****     CyDelay(6000);
  97              		.loc 1 35 0
  98 002c 0348     		ldr	r0, .L5+8
  99 002e FFF7FEFF 		bl	CyDelay
 100              	.LVL5:
  36:lcd_traffic_light.c **** }
 101              		.loc 1 36 0
 102              		@ sp needed
 103 0032 10BD     		pop	{r4, pc}
 104              	.L6:
 105              		.align	2
 106              	.L5:
 107 0034 00000000 		.word	.LANCHOR0
 108 0038 00000000 		.word	.LC2
 109 003c 70170000 		.word	6000
 110              		.cfi_endproc
 111              	.LFE36:
 112              		.size	lcd_init, .-lcd_init
 113              		.section	.text.enc_init,"ax",%progbits
 114              		.align	2
 115              		.global	enc_init
 116              		.code	16
 117              		.thumb_func
 118              		.type	enc_init, %function
 119              	enc_init:
 120              	.LFB37:
  37:lcd_traffic_light.c **** 
  38:lcd_traffic_light.c **** void enc_init(void){
 121              		.loc 1 38 0
 122              		.cfi_startproc
 123              		@ args = 0, pretend = 0, frame = 0
 124              		@ frame_needed = 0, uses_anonymous_args = 0
 125 0000 10B5     		push	{r4, lr}
 126              		.cfi_def_cfa_offset 8
 127              		.cfi_offset 4, -8
 128              		.cfi_offset 14, -4
  39:lcd_traffic_light.c ****     QuadDec_Start();
 129              		.loc 1 39 0
 130 0002 FFF7FEFF 		bl	QuadDec_Start
 131              	.LVL6:
  40:lcd_traffic_light.c ****     QuadDec_WriteCounter(0);  
ARM GAS  C:\Users\ADMIN\AppData\Local\Temp\ccpY695C.s 			page 4


 132              		.loc 1 40 0
 133 0006 0020     		movs	r0, #0
 134 0008 FFF7FEFF 		bl	QuadDec_WriteCounter
 135              	.LVL7:
  41:lcd_traffic_light.c ****     Enc_Sw_Int_StartEx(Enc_Sw_Handler);
 136              		.loc 1 41 0
 137 000c 0148     		ldr	r0, .L8
 138 000e FFF7FEFF 		bl	Enc_Sw_Int_StartEx
 139              	.LVL8:
  42:lcd_traffic_light.c **** }
 140              		.loc 1 42 0
 141              		@ sp needed
 142 0012 10BD     		pop	{r4, pc}
 143              	.L9:
 144              		.align	2
 145              	.L8:
 146 0014 00000000 		.word	Enc_Sw_Handler
 147              		.cfi_endproc
 148              	.LFE37:
 149              		.size	enc_init, .-enc_init
 150              		.section	.text.lcd_time_color,"ax",%progbits
 151              		.align	2
 152              		.global	lcd_time_color
 153              		.code	16
 154              		.thumb_func
 155              		.type	lcd_time_color, %function
 156              	lcd_time_color:
 157              	.LFB38:
  43:lcd_traffic_light.c **** 
  44:lcd_traffic_light.c **** void lcd_time_color(void){
 158              		.loc 1 44 0
 159              		.cfi_startproc
 160              		@ args = 0, pretend = 0, frame = 0
 161              		@ frame_needed = 0, uses_anonymous_args = 0
 162 0000 70B5     		push	{r4, r5, r6, lr}
 163              		.cfi_def_cfa_offset 16
 164              		.cfi_offset 4, -16
 165              		.cfi_offset 5, -12
 166              		.cfi_offset 6, -8
 167              		.cfi_offset 14, -4
  45:lcd_traffic_light.c ****     LCD_ClearDisplay();
 168              		.loc 1 45 0
 169 0002 0120     		movs	r0, #1
 170 0004 FFF7FEFF 		bl	LCD_WriteControl
 171              	.LVL9:
  46:lcd_traffic_light.c ****     sprintf(buf1,"Red Yellow Green");
 172              		.loc 1 46 0
 173 0008 344C     		ldr	r4, .L14
 174 000a 354A     		ldr	r2, .L14+4
 175 000c 231D     		adds	r3, r4, #4
 176 000e 23CA     		ldmia	r2!, {r0, r1, r5}
 177 0010 23C3     		stmia	r3!, {r0, r1, r5}
 178 0012 1100     		movs	r1, r2
 179 0014 1268     		ldr	r2, [r2]
 180 0016 1A60     		str	r2, [r3]
 181 0018 0A79     		ldrb	r2, [r1, #4]
 182 001a 1A71     		strb	r2, [r3, #4]
ARM GAS  C:\Users\ADMIN\AppData\Local\Temp\ccpY695C.s 			page 5


  47:lcd_traffic_light.c ****     LCD_Position(0, 0);
 183              		.loc 1 47 0
 184 001c 0021     		movs	r1, #0
 185 001e 0020     		movs	r0, #0
 186 0020 FFF7FEFF 		bl	LCD_Position
 187              	.LVL10:
  48:lcd_traffic_light.c ****     LCD_PrintString(buf1);
 188              		.loc 1 48 0
 189 0024 201D     		adds	r0, r4, #4
 190 0026 FFF7FEFF 		bl	LCD_PrintString
 191              	.LVL11:
  49:lcd_traffic_light.c ****     if(0 == number_algorithm){  
 192              		.loc 1 49 0
 193 002a 2E4B     		ldr	r3, .L14+8
 194 002c 1B78     		ldrb	r3, [r3]
 195 002e 002B     		cmp	r3, #0
 196 0030 52D1     		bne	.L10
  50:lcd_traffic_light.c ****         if(time < time_red){
 197              		.loc 1 50 0
 198 0032 2D4B     		ldr	r3, .L14+12
 199 0034 1B78     		ldrb	r3, [r3]
 200 0036 DBB2     		uxtb	r3, r3
 201 0038 284A     		ldr	r2, .L14
 202 003a 527D     		ldrb	r2, [r2, #21]
 203 003c 9342     		cmp	r3, r2
 204 003e 10D2     		bcs	.L12
  51:lcd_traffic_light.c ****             sprintf(buf2,"%2d",time_red-time);
 205              		.loc 1 51 0
 206 0040 294B     		ldr	r3, .L14+12
 207 0042 1B78     		ldrb	r3, [r3]
 208 0044 D21A     		subs	r2, r2, r3
 209 0046 254C     		ldr	r4, .L14
 210 0048 1834     		adds	r4, r4, #24
 211 004a 2849     		ldr	r1, .L14+16
 212 004c 2000     		movs	r0, r4
 213 004e FFF7FEFF 		bl	sprintf
 214              	.LVL12:
  52:lcd_traffic_light.c ****             LCD_Position(1, 0);
 215              		.loc 1 52 0
 216 0052 0021     		movs	r1, #0
 217 0054 0120     		movs	r0, #1
 218 0056 FFF7FEFF 		bl	LCD_Position
 219              	.LVL13:
  53:lcd_traffic_light.c ****             LCD_PrintString(buf2);
 220              		.loc 1 53 0
 221 005a 2000     		movs	r0, r4
 222 005c FFF7FEFF 		bl	LCD_PrintString
 223              	.LVL14:
 224 0060 3AE0     		b	.L10
 225              	.L12:
  54:lcd_traffic_light.c ****         }else if(time_red <= time && time < sum_time1) {
 226              		.loc 1 54 0
 227 0062 214B     		ldr	r3, .L14+12
 228 0064 1B78     		ldrb	r3, [r3]
 229 0066 DBB2     		uxtb	r3, r3
 230 0068 9A42     		cmp	r2, r3
 231 006a 17D8     		bhi	.L13
ARM GAS  C:\Users\ADMIN\AppData\Local\Temp\ccpY695C.s 			page 6


 232              		.loc 1 54 0 is_stmt 0 discriminator 1
 233 006c 1E4B     		ldr	r3, .L14+12
 234 006e 1B78     		ldrb	r3, [r3]
 235 0070 DBB2     		uxtb	r3, r3
 236 0072 1F4A     		ldr	r2, .L14+20
 237 0074 1278     		ldrb	r2, [r2]
 238 0076 9342     		cmp	r3, r2
 239 0078 10D2     		bcs	.L13
  55:lcd_traffic_light.c ****             sprintf(buf2,"%6d",sum_time1-time);
 240              		.loc 1 55 0 is_stmt 1
 241 007a 1B4B     		ldr	r3, .L14+12
 242 007c 1B78     		ldrb	r3, [r3]
 243 007e D21A     		subs	r2, r2, r3
 244 0080 164C     		ldr	r4, .L14
 245 0082 1834     		adds	r4, r4, #24
 246 0084 1B49     		ldr	r1, .L14+24
 247 0086 2000     		movs	r0, r4
 248 0088 FFF7FEFF 		bl	sprintf
 249              	.LVL15:
  56:lcd_traffic_light.c ****             LCD_Position(1, 0);
 250              		.loc 1 56 0
 251 008c 0021     		movs	r1, #0
 252 008e 0120     		movs	r0, #1
 253 0090 FFF7FEFF 		bl	LCD_Position
 254              	.LVL16:
  57:lcd_traffic_light.c ****             LCD_PrintString(buf2);
 255              		.loc 1 57 0
 256 0094 2000     		movs	r0, r4
 257 0096 FFF7FEFF 		bl	LCD_PrintString
 258              	.LVL17:
 259 009a 1DE0     		b	.L10
 260              	.L13:
  58:lcd_traffic_light.c ****         }else if(sum_time1 <= time && time < sum_time2) {
 261              		.loc 1 58 0
 262 009c 144B     		ldr	r3, .L14+20
 263 009e 1A78     		ldrb	r2, [r3]
 264 00a0 114B     		ldr	r3, .L14+12
 265 00a2 1B78     		ldrb	r3, [r3]
 266 00a4 DBB2     		uxtb	r3, r3
 267 00a6 9A42     		cmp	r2, r3
 268 00a8 16D8     		bhi	.L10
 269              		.loc 1 58 0 is_stmt 0 discriminator 1
 270 00aa 0F4B     		ldr	r3, .L14+12
 271 00ac 1B78     		ldrb	r3, [r3]
 272 00ae DBB2     		uxtb	r3, r3
 273 00b0 114A     		ldr	r2, .L14+28
 274 00b2 1278     		ldrb	r2, [r2]
 275 00b4 9342     		cmp	r3, r2
 276 00b6 0FD2     		bcs	.L10
  59:lcd_traffic_light.c ****             sprintf(buf2,"%13d",sum_time2-time);
 277              		.loc 1 59 0 is_stmt 1
 278 00b8 0B4B     		ldr	r3, .L14+12
 279 00ba 1B78     		ldrb	r3, [r3]
 280 00bc D21A     		subs	r2, r2, r3
 281 00be 074C     		ldr	r4, .L14
 282 00c0 1834     		adds	r4, r4, #24
 283 00c2 0E49     		ldr	r1, .L14+32
ARM GAS  C:\Users\ADMIN\AppData\Local\Temp\ccpY695C.s 			page 7


 284 00c4 2000     		movs	r0, r4
 285 00c6 FFF7FEFF 		bl	sprintf
 286              	.LVL18:
  60:lcd_traffic_light.c ****             LCD_Position(1, 0);
 287              		.loc 1 60 0
 288 00ca 0021     		movs	r1, #0
 289 00cc 0120     		movs	r0, #1
 290 00ce FFF7FEFF 		bl	LCD_Position
 291              	.LVL19:
  61:lcd_traffic_light.c ****             LCD_PrintString(buf2);
 292              		.loc 1 61 0
 293 00d2 2000     		movs	r0, r4
 294 00d4 FFF7FEFF 		bl	LCD_PrintString
 295              	.LVL20:
 296              	.L10:
  62:lcd_traffic_light.c ****         }
  63:lcd_traffic_light.c ****     }
  64:lcd_traffic_light.c **** }
 297              		.loc 1 64 0
 298              		@ sp needed
 299 00d8 70BD     		pop	{r4, r5, r6, pc}
 300              	.L15:
 301 00da C046     		.align	2
 302              	.L14:
 303 00dc 00000000 		.word	.LANCHOR0
 304 00e0 18000000 		.word	.LC7
 305 00e4 00000000 		.word	number_algorithm
 306 00e8 00000000 		.word	time
 307 00ec 08000000 		.word	.LC11
 308 00f0 00000000 		.word	sum_time1
 309 00f4 0C000000 		.word	.LC14
 310 00f8 00000000 		.word	sum_time2
 311 00fc 10000000 		.word	.LC17
 312              		.cfi_endproc
 313              	.LFE38:
 314              		.size	lcd_time_color, .-lcd_time_color
 315              		.section	.text.lcd_set_red,"ax",%progbits
 316              		.align	2
 317              		.global	lcd_set_red
 318              		.code	16
 319              		.thumb_func
 320              		.type	lcd_set_red, %function
 321              	lcd_set_red:
 322              	.LFB39:
  65:lcd_traffic_light.c **** 
  66:lcd_traffic_light.c **** void lcd_set_red(void){
 323              		.loc 1 66 0
 324              		.cfi_startproc
 325              		@ args = 0, pretend = 0, frame = 0
 326              		@ frame_needed = 0, uses_anonymous_args = 0
 327 0000 70B5     		push	{r4, r5, r6, lr}
 328              		.cfi_def_cfa_offset 16
 329              		.cfi_offset 4, -16
 330              		.cfi_offset 5, -12
 331              		.cfi_offset 6, -8
 332              		.cfi_offset 14, -4
  67:lcd_traffic_light.c ****     LCD_ClearDisplay();
ARM GAS  C:\Users\ADMIN\AppData\Local\Temp\ccpY695C.s 			page 8


 333              		.loc 1 67 0
 334 0002 0120     		movs	r0, #1
 335 0004 FFF7FEFF 		bl	LCD_WriteControl
 336              	.LVL21:
  68:lcd_traffic_light.c ****     sprintf(buf1,"Set red time");
 337              		.loc 1 68 0
 338 0008 0E4C     		ldr	r4, .L17
 339 000a 251D     		adds	r5, r4, #4
 340 000c 0E4B     		ldr	r3, .L17+4
 341 000e 2A00     		movs	r2, r5
 342 0010 43CB     		ldmia	r3!, {r0, r1, r6}
 343 0012 43C2     		stmia	r2!, {r0, r1, r6}
 344 0014 1B78     		ldrb	r3, [r3]
 345 0016 1370     		strb	r3, [r2]
  69:lcd_traffic_light.c ****     LCD_Position(0, 0);
 346              		.loc 1 69 0
 347 0018 0021     		movs	r1, #0
 348 001a 0020     		movs	r0, #0
 349 001c FFF7FEFF 		bl	LCD_Position
 350              	.LVL22:
  70:lcd_traffic_light.c ****     LCD_PrintString(buf1);
 351              		.loc 1 70 0
 352 0020 2800     		movs	r0, r5
 353 0022 FFF7FEFF 		bl	LCD_PrintString
 354              	.LVL23:
  71:lcd_traffic_light.c ****     sprintf(buf2,"Time = %d",time_red);
 355              		.loc 1 71 0
 356 0026 627D     		ldrb	r2, [r4, #21]
 357 0028 1834     		adds	r4, r4, #24
 358 002a 0849     		ldr	r1, .L17+8
 359 002c 2000     		movs	r0, r4
 360 002e FFF7FEFF 		bl	sprintf
 361              	.LVL24:
  72:lcd_traffic_light.c ****     LCD_Position(1, 0);
 362              		.loc 1 72 0
 363 0032 0021     		movs	r1, #0
 364 0034 0120     		movs	r0, #1
 365 0036 FFF7FEFF 		bl	LCD_Position
 366              	.LVL25:
  73:lcd_traffic_light.c ****     LCD_PrintString(buf2);
 367              		.loc 1 73 0
 368 003a 2000     		movs	r0, r4
 369 003c FFF7FEFF 		bl	LCD_PrintString
 370              	.LVL26:
  74:lcd_traffic_light.c **** }
 371              		.loc 1 74 0
 372              		@ sp needed
 373 0040 70BD     		pop	{r4, r5, r6, pc}
 374              	.L18:
 375 0042 C046     		.align	2
 376              	.L17:
 377 0044 00000000 		.word	.LANCHOR0
 378 0048 2C000000 		.word	.LC22
 379 004c 3C000000 		.word	.LC24
 380              		.cfi_endproc
 381              	.LFE39:
 382              		.size	lcd_set_red, .-lcd_set_red
ARM GAS  C:\Users\ADMIN\AppData\Local\Temp\ccpY695C.s 			page 9


 383              		.section	.text.lcd_set_green,"ax",%progbits
 384              		.align	2
 385              		.global	lcd_set_green
 386              		.code	16
 387              		.thumb_func
 388              		.type	lcd_set_green, %function
 389              	lcd_set_green:
 390              	.LFB40:
  75:lcd_traffic_light.c **** 
  76:lcd_traffic_light.c **** void lcd_set_green(void){
 391              		.loc 1 76 0
 392              		.cfi_startproc
 393              		@ args = 0, pretend = 0, frame = 0
 394              		@ frame_needed = 0, uses_anonymous_args = 0
 395 0000 70B5     		push	{r4, r5, r6, lr}
 396              		.cfi_def_cfa_offset 16
 397              		.cfi_offset 4, -16
 398              		.cfi_offset 5, -12
 399              		.cfi_offset 6, -8
 400              		.cfi_offset 14, -4
  77:lcd_traffic_light.c ****     LCD_ClearDisplay();
 401              		.loc 1 77 0
 402 0002 0120     		movs	r0, #1
 403 0004 FFF7FEFF 		bl	LCD_WriteControl
 404              	.LVL27:
  78:lcd_traffic_light.c ****     sprintf(buf1,"Set green time:");
 405              		.loc 1 78 0
 406 0008 0E4C     		ldr	r4, .L20
 407 000a 251D     		adds	r5, r4, #4
 408 000c 0E4B     		ldr	r3, .L20+4
 409 000e 2A00     		movs	r2, r5
 410 0010 43CB     		ldmia	r3!, {r0, r1, r6}
 411 0012 43C2     		stmia	r2!, {r0, r1, r6}
 412 0014 1B68     		ldr	r3, [r3]
 413 0016 1360     		str	r3, [r2]
  79:lcd_traffic_light.c ****     LCD_Position(0, 0);
 414              		.loc 1 79 0
 415 0018 0021     		movs	r1, #0
 416 001a 0020     		movs	r0, #0
 417 001c FFF7FEFF 		bl	LCD_Position
 418              	.LVL28:
  80:lcd_traffic_light.c ****     LCD_PrintString(buf1);
 419              		.loc 1 80 0
 420 0020 2800     		movs	r0, r5
 421 0022 FFF7FEFF 		bl	LCD_PrintString
 422              	.LVL29:
  81:lcd_traffic_light.c ****     sprintf(buf2,"Time = %d",time_green);
 423              		.loc 1 81 0
 424 0026 2923     		movs	r3, #41
 425 0028 E25C     		ldrb	r2, [r4, r3]
 426 002a 1834     		adds	r4, r4, #24
 427 002c 0749     		ldr	r1, .L20+8
 428 002e 2000     		movs	r0, r4
 429 0030 FFF7FEFF 		bl	sprintf
 430              	.LVL30:
  82:lcd_traffic_light.c ****     LCD_Position(1, 0);
 431              		.loc 1 82 0
ARM GAS  C:\Users\ADMIN\AppData\Local\Temp\ccpY695C.s 			page 10


 432 0034 0021     		movs	r1, #0
 433 0036 0120     		movs	r0, #1
 434 0038 FFF7FEFF 		bl	LCD_Position
 435              	.LVL31:
  83:lcd_traffic_light.c ****     LCD_PrintString(buf2);
 436              		.loc 1 83 0
 437 003c 2000     		movs	r0, r4
 438 003e FFF7FEFF 		bl	LCD_PrintString
 439              	.LVL32:
  84:lcd_traffic_light.c **** }
 440              		.loc 1 84 0
 441              		@ sp needed
 442 0042 70BD     		pop	{r4, r5, r6, pc}
 443              	.L21:
 444              		.align	2
 445              	.L20:
 446 0044 00000000 		.word	.LANCHOR0
 447 0048 48000000 		.word	.LC29
 448 004c 3C000000 		.word	.LC24
 449              		.cfi_endproc
 450              	.LFE40:
 451              		.size	lcd_set_green, .-lcd_set_green
 452              		.section	.text.lcd_set_yellow,"ax",%progbits
 453              		.align	2
 454              		.global	lcd_set_yellow
 455              		.code	16
 456              		.thumb_func
 457              		.type	lcd_set_yellow, %function
 458              	lcd_set_yellow:
 459              	.LFB41:
  85:lcd_traffic_light.c **** 
  86:lcd_traffic_light.c **** void lcd_set_yellow(void){
 460              		.loc 1 86 0
 461              		.cfi_startproc
 462              		@ args = 0, pretend = 0, frame = 0
 463              		@ frame_needed = 0, uses_anonymous_args = 0
 464 0000 70B5     		push	{r4, r5, r6, lr}
 465              		.cfi_def_cfa_offset 16
 466              		.cfi_offset 4, -16
 467              		.cfi_offset 5, -12
 468              		.cfi_offset 6, -8
 469              		.cfi_offset 14, -4
  87:lcd_traffic_light.c ****     LCD_ClearDisplay();
 470              		.loc 1 87 0
 471 0002 0120     		movs	r0, #1
 472 0004 FFF7FEFF 		bl	LCD_WriteControl
 473              	.LVL33:
  88:lcd_traffic_light.c ****     sprintf(buf1,"Set yellow time:");
 474              		.loc 1 88 0
 475 0008 0F4C     		ldr	r4, .L23
 476 000a 104A     		ldr	r2, .L23+4
 477 000c 231D     		adds	r3, r4, #4
 478 000e 23CA     		ldmia	r2!, {r0, r1, r5}
 479 0010 23C3     		stmia	r3!, {r0, r1, r5}
 480 0012 1100     		movs	r1, r2
 481 0014 1268     		ldr	r2, [r2]
 482 0016 1A60     		str	r2, [r3]
ARM GAS  C:\Users\ADMIN\AppData\Local\Temp\ccpY695C.s 			page 11


 483 0018 0A79     		ldrb	r2, [r1, #4]
 484 001a 1A71     		strb	r2, [r3, #4]
  89:lcd_traffic_light.c ****     LCD_Position(0, 0);
 485              		.loc 1 89 0
 486 001c 0021     		movs	r1, #0
 487 001e 0020     		movs	r0, #0
 488 0020 FFF7FEFF 		bl	LCD_Position
 489              	.LVL34:
  90:lcd_traffic_light.c ****     LCD_PrintString(buf1);
 490              		.loc 1 90 0
 491 0024 201D     		adds	r0, r4, #4
 492 0026 FFF7FEFF 		bl	LCD_PrintString
 493              	.LVL35:
  91:lcd_traffic_light.c ****     sprintf(buf2,"Time = %d",time_yellow);   
 494              		.loc 1 91 0
 495 002a 2A23     		movs	r3, #42
 496 002c E25C     		ldrb	r2, [r4, r3]
 497 002e 1834     		adds	r4, r4, #24
 498 0030 0749     		ldr	r1, .L23+8
 499 0032 2000     		movs	r0, r4
 500 0034 FFF7FEFF 		bl	sprintf
 501              	.LVL36:
  92:lcd_traffic_light.c ****     LCD_Position(1, 0);
 502              		.loc 1 92 0
 503 0038 0021     		movs	r1, #0
 504 003a 0120     		movs	r0, #1
 505 003c FFF7FEFF 		bl	LCD_Position
 506              	.LVL37:
  93:lcd_traffic_light.c ****     LCD_PrintString(buf2);
 507              		.loc 1 93 0
 508 0040 2000     		movs	r0, r4
 509 0042 FFF7FEFF 		bl	LCD_PrintString
 510              	.LVL38:
  94:lcd_traffic_light.c **** }
 511              		.loc 1 94 0
 512              		@ sp needed
 513 0046 70BD     		pop	{r4, r5, r6, pc}
 514              	.L24:
 515              		.align	2
 516              	.L23:
 517 0048 00000000 		.word	.LANCHOR0
 518 004c 58000000 		.word	.LC35
 519 0050 3C000000 		.word	.LC24
 520              		.cfi_endproc
 521              	.LFE41:
 522              		.size	lcd_set_yellow, .-lcd_set_yellow
 523              		.section	.text.set_time,"ax",%progbits
 524              		.align	2
 525              		.global	set_time
 526              		.code	16
 527              		.thumb_func
 528              		.type	set_time, %function
 529              	set_time:
 530              	.LFB42:
  95:lcd_traffic_light.c **** 
  96:lcd_traffic_light.c **** uint8 set_time(void){
 531              		.loc 1 96 0
ARM GAS  C:\Users\ADMIN\AppData\Local\Temp\ccpY695C.s 			page 12


 532              		.cfi_startproc
 533              		@ args = 0, pretend = 0, frame = 0
 534              		@ frame_needed = 0, uses_anonymous_args = 0
 535 0000 10B5     		push	{r4, lr}
 536              		.cfi_def_cfa_offset 8
 537              		.cfi_offset 4, -8
 538              		.cfi_offset 14, -4
 539              	.LVL39:
  97:lcd_traffic_light.c ****     uint8 value_encoder = 0;
  98:lcd_traffic_light.c ****     value_encoder = QuadDec_ReadCounter();
 540              		.loc 1 98 0
 541 0002 FFF7FEFF 		bl	QuadDec_ReadCounter
 542              	.LVL40:
 543 0006 C0B2     		uxtb	r0, r0
 544              	.LVL41:
  99:lcd_traffic_light.c ****     if(20 < value_encoder && 100 > value_encoder){
 545              		.loc 1 99 0
 546 0008 0300     		movs	r3, r0
 547 000a 153B     		subs	r3, r3, #21
 548 000c DBB2     		uxtb	r3, r3
 549 000e 4E2B     		cmp	r3, #78
 550 0010 03D8     		bhi	.L26
 551              	.LVL42:
 100:lcd_traffic_light.c ****         value_encoder = 20;
 101:lcd_traffic_light.c ****         QuadDec_WriteCounter(20);
 552              		.loc 1 101 0
 553 0012 1420     		movs	r0, #20
 554 0014 FFF7FEFF 		bl	QuadDec_WriteCounter
 555              	.LVL43:
 100:lcd_traffic_light.c ****         value_encoder = 20;
 556              		.loc 1 100 0
 557 0018 1420     		movs	r0, #20
 558              	.LVL44:
 559              	.L26:
 102:lcd_traffic_light.c ****     }
 103:lcd_traffic_light.c ****     if(100 < value_encoder){
 560              		.loc 1 103 0
 561 001a 6428     		cmp	r0, #100
 562 001c 03D9     		bls	.L27
 563              	.LVL45:
 104:lcd_traffic_light.c ****         value_encoder = 0;
 105:lcd_traffic_light.c ****         QuadDec_WriteCounter(0); 
 564              		.loc 1 105 0
 565 001e 0020     		movs	r0, #0
 566 0020 FFF7FEFF 		bl	QuadDec_WriteCounter
 567              	.LVL46:
 104:lcd_traffic_light.c ****         value_encoder = 0;
 568              		.loc 1 104 0
 569 0024 0020     		movs	r0, #0
 570              	.LVL47:
 571              	.L27:
 106:lcd_traffic_light.c ****     }    
 107:lcd_traffic_light.c ****     return value_encoder;
 108:lcd_traffic_light.c **** }
 572              		.loc 1 108 0
 573              		@ sp needed
 574 0026 10BD     		pop	{r4, pc}
ARM GAS  C:\Users\ADMIN\AppData\Local\Temp\ccpY695C.s 			page 13


 575              		.cfi_endproc
 576              	.LFE42:
 577              		.size	set_time, .-set_time
 578              		.section	.text.definition_set_color,"ax",%progbits
 579              		.align	2
 580              		.global	definition_set_color
 581              		.code	16
 582              		.thumb_func
 583              		.type	definition_set_color, %function
 584              	definition_set_color:
 585              	.LFB43:
 109:lcd_traffic_light.c **** 
 110:lcd_traffic_light.c **** void definition_set_color(void){
 586              		.loc 1 110 0
 587              		.cfi_startproc
 588              		@ args = 0, pretend = 0, frame = 0
 589              		@ frame_needed = 0, uses_anonymous_args = 0
 590 0000 10B5     		push	{r4, lr}
 591              		.cfi_def_cfa_offset 8
 592              		.cfi_offset 4, -8
 593              		.cfi_offset 14, -4
 111:lcd_traffic_light.c ****     if(0 == status_set_color){
 594              		.loc 1 111 0
 595 0002 174B     		ldr	r3, .L34
 596 0004 1B78     		ldrb	r3, [r3]
 597 0006 002B     		cmp	r3, #0
 598 0008 02D1     		bne	.L29
 112:lcd_traffic_light.c ****         lcd_time_color();
 599              		.loc 1 112 0
 600 000a FFF7FEFF 		bl	lcd_time_color
 601              	.LVL48:
 602 000e 25E0     		b	.L28
 603              	.L29:
 113:lcd_traffic_light.c ****     }else if(1 == status_set_color){
 604              		.loc 1 113 0
 605 0010 134B     		ldr	r3, .L34
 606 0012 1B78     		ldrb	r3, [r3]
 607 0014 012B     		cmp	r3, #1
 608 0016 06D1     		bne	.L31
 114:lcd_traffic_light.c ****         time_red = set_time();
 609              		.loc 1 114 0
 610 0018 FFF7FEFF 		bl	set_time
 611              	.LVL49:
 612 001c 104B     		ldr	r3, .L34
 613 001e 5875     		strb	r0, [r3, #21]
 115:lcd_traffic_light.c ****         lcd_set_red();
 614              		.loc 1 115 0
 615 0020 FFF7FEFF 		bl	lcd_set_red
 616              	.LVL50:
 617 0024 1AE0     		b	.L28
 618              	.L31:
 116:lcd_traffic_light.c ****     }else if(2 == status_set_color){
 619              		.loc 1 116 0
 620 0026 0E4B     		ldr	r3, .L34
 621 0028 1B78     		ldrb	r3, [r3]
 622 002a 022B     		cmp	r3, #2
 623 002c 07D1     		bne	.L32
ARM GAS  C:\Users\ADMIN\AppData\Local\Temp\ccpY695C.s 			page 14


 117:lcd_traffic_light.c ****         time_yellow = set_time();
 624              		.loc 1 117 0
 625 002e FFF7FEFF 		bl	set_time
 626              	.LVL51:
 627 0032 2A23     		movs	r3, #42
 628 0034 0A4A     		ldr	r2, .L34
 629 0036 D054     		strb	r0, [r2, r3]
 118:lcd_traffic_light.c ****         lcd_set_yellow();
 630              		.loc 1 118 0
 631 0038 FFF7FEFF 		bl	lcd_set_yellow
 632              	.LVL52:
 633 003c 0EE0     		b	.L28
 634              	.L32:
 119:lcd_traffic_light.c ****     }else if(3 == status_set_color){
 635              		.loc 1 119 0
 636 003e 084B     		ldr	r3, .L34
 637 0040 1B78     		ldrb	r3, [r3]
 638 0042 032B     		cmp	r3, #3
 639 0044 07D1     		bne	.L33
 120:lcd_traffic_light.c ****         time_green = set_time();
 640              		.loc 1 120 0
 641 0046 FFF7FEFF 		bl	set_time
 642              	.LVL53:
 643 004a 2923     		movs	r3, #41
 644 004c 044A     		ldr	r2, .L34
 645 004e D054     		strb	r0, [r2, r3]
 121:lcd_traffic_light.c ****         lcd_set_green();
 646              		.loc 1 121 0
 647 0050 FFF7FEFF 		bl	lcd_set_green
 648              	.LVL54:
 649 0054 02E0     		b	.L28
 650              	.L33:
 122:lcd_traffic_light.c ****     }else{
 123:lcd_traffic_light.c ****         status_set_color = 0;
 651              		.loc 1 123 0
 652 0056 0022     		movs	r2, #0
 653 0058 014B     		ldr	r3, .L34
 654 005a 1A70     		strb	r2, [r3]
 655              	.L28:
 124:lcd_traffic_light.c ****     } 
 125:lcd_traffic_light.c **** }...
 656              		.loc 1 125 0
 657              		@ sp needed
 658 005c 10BD     		pop	{r4, pc}
 659              	.L35:
 660 005e C046     		.align	2
 661              	.L34:
 662 0060 00000000 		.word	.LANCHOR0
 663              		.cfi_endproc
 664              	.LFE43:
 665              		.size	definition_set_color, .-definition_set_color
 666              		.global	time_green
 667              		.global	time_yellow
 668              		.global	time_red
 669              		.global	status_set_color
 670              		.section	.rodata.str1.4,"aMS",%progbits,1
 671              		.align	2
ARM GAS  C:\Users\ADMIN\AppData\Local\Temp\ccpY695C.s 			page 15


 672              	.LC2:
 673 0000 41757468 		.ascii	"Author\000"
 673      6F7200
 674 0007 00       		.space	1
 675              	.LC11:
 676 0008 25326400 		.ascii	"%2d\000"
 677              	.LC14:
 678 000c 25366400 		.ascii	"%6d\000"
 679              	.LC17:
 680 0010 25313364 		.ascii	"%13d\000"
 680      00
 681 0015 000000   		.space	3
 682              	.LC7:
 683 0018 52656420 		.ascii	"Red Yellow Green\000"
 683      59656C6C 
 683      6F772047 
 683      7265656E 
 683      00
 684 0029 000000   		.space	3
 685              	.LC22:
 686 002c 53657420 		.ascii	"Set red time\000"
 686      72656420 
 686      74696D65 
 686      00
 687 0039 000000   		.space	3
 688              	.LC24:
 689 003c 54696D65 		.ascii	"Time = %d\000"
 689      203D2025 
 689      6400
 690 0046 0000     		.space	2
 691              	.LC29:
 692 0048 53657420 		.ascii	"Set green time:\000"
 692      67726565 
 692      6E207469 
 692      6D653A00 
 693              	.LC35:
 694 0058 53657420 		.ascii	"Set yellow time:\000"
 694      79656C6C 
 694      6F772074 
 694      696D653A 
 694      00
 695              		.bss
 696              		.align	2
 697              		.set	.LANCHOR0,. + 0
 698              		.type	status_set_color, %object
 699              		.size	status_set_color, 1
 700              	status_set_color:
 701 0000 00       		.space	1
 702 0001 000000   		.space	3
 703              		.type	buf1, %object
 704              		.size	buf1, 17
 705              	buf1:
 706 0004 00000000 		.space	17
 706      00000000 
 706      00000000 
 706      00000000 
 706      00
ARM GAS  C:\Users\ADMIN\AppData\Local\Temp\ccpY695C.s 			page 16


 707              		.type	time_red, %object
 708              		.size	time_red, 1
 709              	time_red:
 710 0015 00       		.space	1
 711 0016 0000     		.space	2
 712              		.type	buf2, %object
 713              		.size	buf2, 17
 714              	buf2:
 715 0018 00000000 		.space	17
 715      00000000 
 715      00000000 
 715      00000000 
 715      00
 716              		.type	time_green, %object
 717              		.size	time_green, 1
 718              	time_green:
 719 0029 00       		.space	1
 720              		.type	time_yellow, %object
 721              		.size	time_yellow, 1
 722              	time_yellow:
 723 002a 00       		.space	1
 724              		.text
 725              	.Letext0:
 726              		.file 2 "Generated_Source\\PSoC4/Enc_Sw.h"
 727              		.file 3 "Generated_Source\\PSoC4/LCD.h"
 728              		.file 4 "Generated_Source\\PSoC4/CyLib.h"
 729              		.file 5 "Generated_Source\\PSoC4/QuadDec.h"
 730              		.file 6 "Generated_Source\\PSoC4/Enc_Sw_Int.h"
 731              		.file 7 "c:\\program files (x86)\\cypress\\psoc creator\\4.2\\psoc creator\\import\\gnu\\arm\\5.4.
 732              		.file 8 "Generated_Source\\PSoC4/cytypes.h"