ARM GAS  C:\Users\ADMIN\AppData\Local\Temp\ccF9m3PJ.s 			page 1


   1              		.syntax unified
   2              		.cpu cortex-m0
   3              		.fpu softvfp
   4              		.eabi_attribute 20, 1
   5              		.eabi_attribute 21, 1
   6              		.eabi_attribute 23, 3
   7              		.eabi_attribute 24, 1
   8              		.eabi_attribute 25, 1
   9              		.eabi_attribute 26, 1
  10              		.eabi_attribute 30, 1
  11              		.eabi_attribute 34, 0
  12              		.eabi_attribute 18, 4
  13              		.thumb
  14              		.syntax unified
  15              		.file	"algorithm.c"
  16              		.text
  17              	.Ltext0:
  18              		.cfi_sections	.debug_frame
  19              		.section	.text.Timer_Handler,"ax",%progbits
  20              		.align	2
  21              		.global	Timer_Handler
  22              		.code	16
  23              		.thumb_func
  24              		.type	Timer_Handler, %function
  25              	Timer_Handler:
  26              	.LFB34:
  27              		.file 1 "algorithm.c"
   1:algorithm.c   **** #include "lab.h"
   2:algorithm.c   **** 
   3:algorithm.c   **** volatile uint8 time = 0;
   4:algorithm.c   **** volatile uint8 direction = 0;
   5:algorithm.c   **** volatile uint8 speed = 0;
   6:algorithm.c   **** 
   7:algorithm.c   **** uint8 value_PWM = 0;
   8:algorithm.c   **** 
   9:algorithm.c   **** uint8 set_pwm(void);
  10:algorithm.c   **** 
  11:algorithm.c   **** extern void(*stage_list[])();
  12:algorithm.c   **** 
  13:algorithm.c   **** char stage_rotor[8]={0b0011,0b0010,0b0110,0b0100,0b1100,0b1000,0b1001,0b0001};
  14:algorithm.c   **** 
  15:algorithm.c   **** CY_ISR(Timer_Handler){
  28              		.loc 1 15 0
  29              		.cfi_startproc
  30              		@ args = 0, pretend = 0, frame = 0
  31              		@ frame_needed = 0, uses_anonymous_args = 0
  32 0000 10B5     		push	{r4, lr}
  33              		.cfi_def_cfa_offset 8
  34              		.cfi_offset 4, -8
  35              		.cfi_offset 14, -4
  16:algorithm.c   ****     time++;
  36              		.loc 1 16 0
  37 0002 074A     		ldr	r2, .L3
  38 0004 1378     		ldrb	r3, [r2]
  39 0006 0133     		adds	r3, r3, #1
  40 0008 DBB2     		uxtb	r3, r3
  41 000a 1370     		strb	r3, [r2]
ARM GAS  C:\Users\ADMIN\AppData\Local\Temp\ccF9m3PJ.s 			page 2


  17:algorithm.c   ****     if(8 == time){
  42              		.loc 1 17 0
  43 000c 1378     		ldrb	r3, [r2]
  44 000e 082B     		cmp	r3, #8
  45 0010 02D1     		bne	.L2
  18:algorithm.c   ****             time = 0;
  46              		.loc 1 18 0
  47 0012 0022     		movs	r2, #0
  48 0014 024B     		ldr	r3, .L3
  49 0016 1A70     		strb	r2, [r3]
  50              	.L2:
  19:algorithm.c   ****     }
  20:algorithm.c   ****     Timer_ClearInterrupt(Timer_INTR_MASK_TC);
  51              		.loc 1 20 0
  52 0018 0120     		movs	r0, #1
  53 001a FFF7FEFF 		bl	Timer_ClearInterrupt
  54              	.LVL0:
  21:algorithm.c   **** }
  55              		.loc 1 21 0
  56              		@ sp needed
  57 001e 10BD     		pop	{r4, pc}
  58              	.L4:
  59              		.align	2
  60              	.L3:
  61 0020 00000000 		.word	.LANCHOR0
  62              		.cfi_endproc
  63              	.LFE34:
  64              		.size	Timer_Handler, .-Timer_Handler
  65              		.section	.text.SW_1_Handler,"ax",%progbits
  66              		.align	2
  67              		.global	SW_1_Handler
  68              		.code	16
  69              		.thumb_func
  70              		.type	SW_1_Handler, %function
  71              	SW_1_Handler:
  72              	.LFB35:
  22:algorithm.c   **** 
  23:algorithm.c   **** CY_ISR(SW_1_Handler){
  73              		.loc 1 23 0
  74              		.cfi_startproc
  75              		@ args = 0, pretend = 0, frame = 0
  76              		@ frame_needed = 0, uses_anonymous_args = 0
  77 0000 10B5     		push	{r4, lr}
  78              		.cfi_def_cfa_offset 8
  79              		.cfi_offset 4, -8
  80              		.cfi_offset 14, -4
  24:algorithm.c   ****     direction = 1;
  81              		.loc 1 24 0
  82 0002 0122     		movs	r2, #1
  83 0004 024B     		ldr	r3, .L6
  84 0006 5A70     		strb	r2, [r3, #1]
  25:algorithm.c   ****     SW_1_ClearInterrupt();
  85              		.loc 1 25 0
  86 0008 FFF7FEFF 		bl	SW_1_ClearInterrupt
  87              	.LVL1:
  26:algorithm.c   **** }
  88              		.loc 1 26 0
ARM GAS  C:\Users\ADMIN\AppData\Local\Temp\ccF9m3PJ.s 			page 3


  89              		@ sp needed
  90 000c 10BD     		pop	{r4, pc}
  91              	.L7:
  92 000e C046     		.align	2
  93              	.L6:
  94 0010 00000000 		.word	.LANCHOR0
  95              		.cfi_endproc
  96              	.LFE35:
  97              		.size	SW_1_Handler, .-SW_1_Handler
  98              		.section	.text.SW_2_Handler,"ax",%progbits
  99              		.align	2
 100              		.global	SW_2_Handler
 101              		.code	16
 102              		.thumb_func
 103              		.type	SW_2_Handler, %function
 104              	SW_2_Handler:
 105              	.LFB36:
  27:algorithm.c   **** 
  28:algorithm.c   **** CY_ISR(SW_2_Handler){
 106              		.loc 1 28 0
 107              		.cfi_startproc
 108              		@ args = 0, pretend = 0, frame = 0
 109              		@ frame_needed = 0, uses_anonymous_args = 0
 110 0000 10B5     		push	{r4, lr}
 111              		.cfi_def_cfa_offset 8
 112              		.cfi_offset 4, -8
 113              		.cfi_offset 14, -4
  29:algorithm.c   ****     direction = 2;
 114              		.loc 1 29 0
 115 0002 0222     		movs	r2, #2
 116 0004 024B     		ldr	r3, .L9
 117 0006 5A70     		strb	r2, [r3, #1]
  30:algorithm.c   ****     SW_2_ClearInterrupt();
 118              		.loc 1 30 0
 119 0008 FFF7FEFF 		bl	SW_2_ClearInterrupt
 120              	.LVL2:
  31:algorithm.c   **** }
 121              		.loc 1 31 0
 122              		@ sp needed
 123 000c 10BD     		pop	{r4, pc}
 124              	.L10:
 125 000e C046     		.align	2
 126              	.L9:
 127 0010 00000000 		.word	.LANCHOR0
 128              		.cfi_endproc
 129              	.LFE36:
 130              		.size	SW_2_Handler, .-SW_2_Handler
 131              		.section	.text.SW_3_Handler,"ax",%progbits
 132              		.align	2
 133              		.global	SW_3_Handler
 134              		.code	16
 135              		.thumb_func
 136              		.type	SW_3_Handler, %function
 137              	SW_3_Handler:
 138              	.LFB37:
  32:algorithm.c   **** 
  33:algorithm.c   **** CY_ISR(SW_3_Handler){
ARM GAS  C:\Users\ADMIN\AppData\Local\Temp\ccF9m3PJ.s 			page 4


 139              		.loc 1 33 0
 140              		.cfi_startproc
 141              		@ args = 0, pretend = 0, frame = 0
 142              		@ frame_needed = 0, uses_anonymous_args = 0
 143 0000 10B5     		push	{r4, lr}
 144              		.cfi_def_cfa_offset 8
 145              		.cfi_offset 4, -8
 146              		.cfi_offset 14, -4
  34:algorithm.c   ****     speed -= 10;
 147              		.loc 1 34 0
 148 0002 074A     		ldr	r2, .L13
 149 0004 9378     		ldrb	r3, [r2, #2]
 150 0006 0A3B     		subs	r3, r3, #10
 151 0008 DBB2     		uxtb	r3, r3
 152 000a 9370     		strb	r3, [r2, #2]
  35:algorithm.c   ****     if(200 < speed){
 153              		.loc 1 35 0
 154 000c 9378     		ldrb	r3, [r2, #2]
 155 000e DBB2     		uxtb	r3, r3
 156 0010 C82B     		cmp	r3, #200
 157 0012 02D9     		bls	.L12
  36:algorithm.c   ****         speed = 0;
 158              		.loc 1 36 0
 159 0014 0022     		movs	r2, #0
 160 0016 024B     		ldr	r3, .L13
 161 0018 9A70     		strb	r2, [r3, #2]
 162              	.L12:
  37:algorithm.c   ****     }
  38:algorithm.c   ****     SW_3_ClearInterrupt();
 163              		.loc 1 38 0
 164 001a FFF7FEFF 		bl	SW_3_ClearInterrupt
 165              	.LVL3:
  39:algorithm.c   **** }
 166              		.loc 1 39 0
 167              		@ sp needed
 168 001e 10BD     		pop	{r4, pc}
 169              	.L14:
 170              		.align	2
 171              	.L13:
 172 0020 00000000 		.word	.LANCHOR0
 173              		.cfi_endproc
 174              	.LFE37:
 175              		.size	SW_3_Handler, .-SW_3_Handler
 176              		.section	.text.SW_4_Handler,"ax",%progbits
 177              		.align	2
 178              		.global	SW_4_Handler
 179              		.code	16
 180              		.thumb_func
 181              		.type	SW_4_Handler, %function
 182              	SW_4_Handler:
 183              	.LFB38:
  40:algorithm.c   **** 
  41:algorithm.c   **** CY_ISR(SW_4_Handler){
 184              		.loc 1 41 0
 185              		.cfi_startproc
 186              		@ args = 0, pretend = 0, frame = 0
 187              		@ frame_needed = 0, uses_anonymous_args = 0
ARM GAS  C:\Users\ADMIN\AppData\Local\Temp\ccF9m3PJ.s 			page 5


 188 0000 10B5     		push	{r4, lr}
 189              		.cfi_def_cfa_offset 8
 190              		.cfi_offset 4, -8
 191              		.cfi_offset 14, -4
  42:algorithm.c   ****     speed += 10;
 192              		.loc 1 42 0
 193 0002 094A     		ldr	r2, .L17
 194 0004 9378     		ldrb	r3, [r2, #2]
 195 0006 0A33     		adds	r3, r3, #10
 196 0008 DBB2     		uxtb	r3, r3
 197 000a 9370     		strb	r3, [r2, #2]
  43:algorithm.c   ****     if(100 < speed && 150 > speed){
 198              		.loc 1 43 0
 199 000c 9378     		ldrb	r3, [r2, #2]
 200 000e DBB2     		uxtb	r3, r3
 201 0010 642B     		cmp	r3, #100
 202 0012 06D9     		bls	.L16
 203              		.loc 1 43 0 is_stmt 0 discriminator 1
 204 0014 9378     		ldrb	r3, [r2, #2]
 205 0016 DBB2     		uxtb	r3, r3
 206 0018 952B     		cmp	r3, #149
 207 001a 02D8     		bhi	.L16
  44:algorithm.c   ****         speed = 100;
 208              		.loc 1 44 0 is_stmt 1
 209 001c 6422     		movs	r2, #100
 210 001e 024B     		ldr	r3, .L17
 211 0020 9A70     		strb	r2, [r3, #2]
 212              	.L16:
  45:algorithm.c   ****     }
  46:algorithm.c   ****     SW_4_ClearInterrupt();
 213              		.loc 1 46 0
 214 0022 FFF7FEFF 		bl	SW_4_ClearInterrupt
 215              	.LVL4:
  47:algorithm.c   **** }
 216              		.loc 1 47 0
 217              		@ sp needed
 218 0026 10BD     		pop	{r4, pc}
 219              	.L18:
 220              		.align	2
 221              	.L17:
 222 0028 00000000 		.word	.LANCHOR0
 223              		.cfi_endproc
 224              	.LFE38:
 225              		.size	SW_4_Handler, .-SW_4_Handler
 226              		.section	.text.algorithm_init,"ax",%progbits
 227              		.align	2
 228              		.global	algorithm_init
 229              		.code	16
 230              		.thumb_func
 231              		.type	algorithm_init, %function
 232              	algorithm_init:
 233              	.LFB39:
  48:algorithm.c   **** 
  49:algorithm.c   **** void algorithm_init(void){
 234              		.loc 1 49 0
 235              		.cfi_startproc
 236              		@ args = 0, pretend = 0, frame = 0
ARM GAS  C:\Users\ADMIN\AppData\Local\Temp\ccF9m3PJ.s 			page 6


 237              		@ frame_needed = 0, uses_anonymous_args = 0
 238 0000 10B5     		push	{r4, lr}
 239              		.cfi_def_cfa_offset 8
 240              		.cfi_offset 4, -8
 241              		.cfi_offset 14, -4
  50:algorithm.c   ****     Timer_Start();
 242              		.loc 1 50 0
 243 0002 FFF7FEFF 		bl	Timer_Start
 244              	.LVL5:
  51:algorithm.c   ****     PWM_Start();
 245              		.loc 1 51 0
 246 0006 FFF7FEFF 		bl	PWM_Start
 247              	.LVL6:
  52:algorithm.c   ****     Timer_Int_StartEx(Timer_Handler);
 248              		.loc 1 52 0
 249 000a 0848     		ldr	r0, .L20
 250 000c FFF7FEFF 		bl	Timer_Int_StartEx
 251              	.LVL7:
  53:algorithm.c   ****     SW_Int_1_StartEx(SW_1_Handler);
 252              		.loc 1 53 0
 253 0010 0748     		ldr	r0, .L20+4
 254 0012 FFF7FEFF 		bl	SW_Int_1_StartEx
 255              	.LVL8:
  54:algorithm.c   ****     SW_Int_2_StartEx(SW_2_Handler);
 256              		.loc 1 54 0
 257 0016 0748     		ldr	r0, .L20+8
 258 0018 FFF7FEFF 		bl	SW_Int_2_StartEx
 259              	.LVL9:
  55:algorithm.c   ****     SW_Int_3_StartEx(SW_3_Handler);
 260              		.loc 1 55 0
 261 001c 0648     		ldr	r0, .L20+12
 262 001e FFF7FEFF 		bl	SW_Int_3_StartEx
 263              	.LVL10:
  56:algorithm.c   ****     SW_Int_4_StartEx(SW_4_Handler);
 264              		.loc 1 56 0
 265 0022 0648     		ldr	r0, .L20+16
 266 0024 FFF7FEFF 		bl	SW_Int_4_StartEx
 267              	.LVL11:
  57:algorithm.c   **** }
 268              		.loc 1 57 0
 269              		@ sp needed
 270 0028 10BD     		pop	{r4, pc}
 271              	.L21:
 272 002a C046     		.align	2
 273              	.L20:
 274 002c 00000000 		.word	Timer_Handler
 275 0030 00000000 		.word	SW_1_Handler
 276 0034 00000000 		.word	SW_2_Handler
 277 0038 00000000 		.word	SW_3_Handler
 278 003c 00000000 		.word	SW_4_Handler
 279              		.cfi_endproc
 280              	.LFE39:
 281              		.size	algorithm_init, .-algorithm_init
 282              		.section	.text.enc_init,"ax",%progbits
 283              		.align	2
 284              		.global	enc_init
 285              		.code	16
ARM GAS  C:\Users\ADMIN\AppData\Local\Temp\ccF9m3PJ.s 			page 7


 286              		.thumb_func
 287              		.type	enc_init, %function
 288              	enc_init:
 289              	.LFB40:
  58:algorithm.c   **** 
  59:algorithm.c   **** void enc_init(void){
 290              		.loc 1 59 0
 291              		.cfi_startproc
 292              		@ args = 0, pretend = 0, frame = 0
 293              		@ frame_needed = 0, uses_anonymous_args = 0
 294 0000 10B5     		push	{r4, lr}
 295              		.cfi_def_cfa_offset 8
 296              		.cfi_offset 4, -8
 297              		.cfi_offset 14, -4
  60:algorithm.c   ****     QuadDec_Start();
 298              		.loc 1 60 0
 299 0002 FFF7FEFF 		bl	QuadDec_Start
 300              	.LVL12:
  61:algorithm.c   ****     QuadDec_WriteCounter(0);
 301              		.loc 1 61 0
 302 0006 0020     		movs	r0, #0
 303 0008 FFF7FEFF 		bl	QuadDec_WriteCounter
 304              	.LVL13:
  62:algorithm.c   **** }
 305              		.loc 1 62 0
 306              		@ sp needed
 307 000c 10BD     		pop	{r4, pc}
 308              		.cfi_endproc
 309              	.LFE40:
 310              		.size	enc_init, .-enc_init
 311 000e C046     		.section	.text.set_pwm,"ax",%progbits
 312              		.align	2
 313              		.global	set_pwm
 314              		.code	16
 315              		.thumb_func
 316              		.type	set_pwm, %function
 317              	set_pwm:
 318              	.LFB41:
  63:algorithm.c   **** 
  64:algorithm.c   **** uint8 set_pwm(void){
 319              		.loc 1 64 0
 320              		.cfi_startproc
 321              		@ args = 0, pretend = 0, frame = 0
 322              		@ frame_needed = 0, uses_anonymous_args = 0
 323 0000 10B5     		push	{r4, lr}
 324              		.cfi_def_cfa_offset 8
 325              		.cfi_offset 4, -8
 326              		.cfi_offset 14, -4
 327              	.LVL14:
  65:algorithm.c   ****     uint8 value_encoder = 0;
  66:algorithm.c   ****     value_encoder = QuadDec_ReadCounter();
 328              		.loc 1 66 0
 329 0002 FFF7FEFF 		bl	QuadDec_ReadCounter
 330              	.LVL15:
 331 0006 C0B2     		uxtb	r0, r0
 332              	.LVL16:
  67:algorithm.c   ****     if(10 < value_encoder && 20 > value_encoder){
ARM GAS  C:\Users\ADMIN\AppData\Local\Temp\ccF9m3PJ.s 			page 8


 333              		.loc 1 67 0
 334 0008 0300     		movs	r3, r0
 335 000a 0B3B     		subs	r3, r3, #11
 336 000c DBB2     		uxtb	r3, r3
 337 000e 082B     		cmp	r3, #8
 338 0010 03D8     		bhi	.L24
 339              	.LVL17:
  68:algorithm.c   ****         value_encoder = 10;
  69:algorithm.c   ****         QuadDec_WriteCounter(10);
 340              		.loc 1 69 0
 341 0012 0A20     		movs	r0, #10
 342 0014 FFF7FEFF 		bl	QuadDec_WriteCounter
 343              	.LVL18:
  68:algorithm.c   ****         value_encoder = 10;
 344              		.loc 1 68 0
 345 0018 0A20     		movs	r0, #10
 346              	.LVL19:
 347              	.L24:
  70:algorithm.c   ****     }
  71:algorithm.c   ****     if(2 > value_encoder){
 348              		.loc 1 71 0
 349 001a 0128     		cmp	r0, #1
 350 001c 03D8     		bhi	.L25
 351              	.LVL20:
  72:algorithm.c   ****         value_encoder = 2;
  73:algorithm.c   ****         QuadDec_WriteCounter(2); 
 352              		.loc 1 73 0
 353 001e 0220     		movs	r0, #2
 354 0020 FFF7FEFF 		bl	QuadDec_WriteCounter
 355              	.LVL21:
  72:algorithm.c   ****         value_encoder = 2;
 356              		.loc 1 72 0
 357 0024 0220     		movs	r0, #2
 358              	.LVL22:
 359              	.L25:
  74:algorithm.c   ****     }    
  75:algorithm.c   ****     return value_encoder * 10;
 360              		.loc 1 75 0
 361 0026 8300     		lsls	r3, r0, #2
 362 0028 C018     		adds	r0, r0, r3
 363              	.LVL23:
 364 002a 4300     		lsls	r3, r0, #1
 365 002c D8B2     		uxtb	r0, r3
  76:algorithm.c   **** }
 366              		.loc 1 76 0
 367              		@ sp needed
 368 002e 10BD     		pop	{r4, pc}
 369              		.cfi_endproc
 370              	.LFE41:
 371              		.size	set_pwm, .-set_pwm
 372              		.section	.text.active_stage,"ax",%progbits
 373              		.align	2
 374              		.global	active_stage
 375              		.code	16
 376              		.thumb_func
 377              		.type	active_stage, %function
 378              	active_stage:
ARM GAS  C:\Users\ADMIN\AppData\Local\Temp\ccF9m3PJ.s 			page 9


 379              	.LFB42:
  77:algorithm.c   **** 
  78:algorithm.c   **** void active_stage(){
 380              		.loc 1 78 0
 381              		.cfi_startproc
 382              		@ args = 0, pretend = 0, frame = 0
 383              		@ frame_needed = 0, uses_anonymous_args = 0
 384 0000 10B5     		push	{r4, lr}
 385              		.cfi_def_cfa_offset 8
 386              		.cfi_offset 4, -8
 387              		.cfi_offset 14, -4
  79:algorithm.c   ****     if(0 != speed){
 388              		.loc 1 79 0
 389 0002 134B     		ldr	r3, .L29
 390 0004 9B78     		ldrb	r3, [r3, #2]
 391 0006 002B     		cmp	r3, #0
 392 0008 20D0     		beq	.L26
  80:algorithm.c   ****         Timer_WritePeriod(2200 - (speed*10));
 393              		.loc 1 80 0
 394 000a 114C     		ldr	r4, .L29
 395 000c A378     		ldrb	r3, [r4, #2]
 396 000e 0A20     		movs	r0, #10
 397 0010 4042     		rsbs	r0, r0, #0
 398 0012 5843     		muls	r0, r3
 399 0014 0F4B     		ldr	r3, .L29+4
 400 0016 9C46     		mov	ip, r3
 401 0018 6044     		add	r0, r0, ip
 402 001a FFF7FEFF 		bl	Timer_WritePeriod
 403              	.LVL24:
  81:algorithm.c   ****         
  82:algorithm.c   ****         if(1 == direction){
 404              		.loc 1 82 0
 405 001e 6378     		ldrb	r3, [r4, #1]
 406 0020 012B     		cmp	r3, #1
 407 0022 08D1     		bne	.L28
  83:algorithm.c   ****             Rotor_Write(stage_rotor[7-time]);
 408              		.loc 1 83 0
 409 0024 0A4B     		ldr	r3, .L29
 410 0026 1A78     		ldrb	r2, [r3]
 411 0028 0723     		movs	r3, #7
 412 002a 9B1A     		subs	r3, r3, r2
 413 002c 0A4A     		ldr	r2, .L29+8
 414 002e D05C     		ldrb	r0, [r2, r3]
 415 0030 FFF7FEFF 		bl	Rotor_Write
 416              	.LVL25:
 417 0034 0AE0     		b	.L26
 418              	.L28:
  84:algorithm.c   ****         }else if(2 == direction){
 419              		.loc 1 84 0
 420 0036 064B     		ldr	r3, .L29
 421 0038 5B78     		ldrb	r3, [r3, #1]
 422 003a 022B     		cmp	r3, #2
 423 003c 06D1     		bne	.L26
  85:algorithm.c   ****             Rotor_Write(stage_rotor[time]);
 424              		.loc 1 85 0
 425 003e 044B     		ldr	r3, .L29
 426 0040 1B78     		ldrb	r3, [r3]
ARM GAS  C:\Users\ADMIN\AppData\Local\Temp\ccF9m3PJ.s 			page 10


 427 0042 DBB2     		uxtb	r3, r3
 428 0044 044A     		ldr	r2, .L29+8
 429 0046 D05C     		ldrb	r0, [r2, r3]
 430 0048 FFF7FEFF 		bl	Rotor_Write
 431              	.LVL26:
 432              	.L26:
  86:algorithm.c   ****             //stage_list[time]();  
  87:algorithm.c   ****         }
  88:algorithm.c   ****     }
  89:algorithm.c   **** }
 433              		.loc 1 89 0
 434              		@ sp needed
 435 004c 10BD     		pop	{r4, pc}
 436              	.L30:
 437 004e C046     		.align	2
 438              	.L29:
 439 0050 00000000 		.word	.LANCHOR0
 440 0054 98080000 		.word	2200
 441 0058 00000000 		.word	.LANCHOR1
 442              		.cfi_endproc
 443              	.LFE42:
 444              		.size	active_stage, .-active_stage
 445              		.section	.text.algorithm_work_rotor,"ax",%progbits
 446              		.align	2
 447              		.global	algorithm_work_rotor
 448              		.code	16
 449              		.thumb_func
 450              		.type	algorithm_work_rotor, %function
 451              	algorithm_work_rotor:
 452              	.LFB43:
  90:algorithm.c   **** 
  91:algorithm.c   **** void algorithm_work_rotor(void){ 
 453              		.loc 1 91 0
 454              		.cfi_startproc
 455              		@ args = 0, pretend = 0, frame = 0
 456              		@ frame_needed = 0, uses_anonymous_args = 0
 457 0000 10B5     		push	{r4, lr}
 458              		.cfi_def_cfa_offset 8
 459              		.cfi_offset 4, -8
 460              		.cfi_offset 14, -4
  92:algorithm.c   ****     value_PWM = set_pwm();
 461              		.loc 1 92 0
 462 0002 FFF7FEFF 		bl	set_pwm
 463              	.LVL27:
 464 0006 034B     		ldr	r3, .L32
 465 0008 D870     		strb	r0, [r3, #3]
  93:algorithm.c   ****     PWM_WriteCompare(value_PWM);
 466              		.loc 1 93 0
 467 000a FFF7FEFF 		bl	PWM_WriteCompare
 468              	.LVL28:
  94:algorithm.c   ****     active_stage();
 469              		.loc 1 94 0
 470 000e FFF7FEFF 		bl	active_stage
 471              	.LVL29:
  95:algorithm.c   **** }...
 472              		.loc 1 95 0
 473              		@ sp needed
ARM GAS  C:\Users\ADMIN\AppData\Local\Temp\ccF9m3PJ.s 			page 11


 474 0012 10BD     		pop	{r4, pc}
 475              	.L33:
 476              		.align	2
 477              	.L32:
 478 0014 00000000 		.word	.LANCHOR0
 479              		.cfi_endproc
 480              	.LFE43:
 481              		.size	algorithm_work_rotor, .-algorithm_work_rotor
 482              		.global	stage_rotor
 483              		.global	value_PWM
 484              		.global	speed
 485              		.global	direction
 486              		.global	time
 487              		.data
 488              		.align	2
 489              		.set	.LANCHOR1,. + 0
 490              		.type	stage_rotor, %object
 491              		.size	stage_rotor, 8
 492              	stage_rotor:
 493 0000 03       		.byte	3
 494 0001 02       		.byte	2
 495 0002 06       		.byte	6
 496 0003 04       		.byte	4
 497 0004 0C       		.byte	12
 498 0005 08       		.byte	8
 499 0006 09       		.byte	9
 500 0007 01       		.byte	1
 501              		.bss
 502              		.set	.LANCHOR0,. + 0
 503              		.type	time, %object
 504              		.size	time, 1
 505              	time:
 506 0000 00       		.space	1
 507              		.type	direction, %object
 508              		.size	direction, 1
 509              	direction:
 510 0001 00       		.space	1
 511              		.type	speed, %object
 512              		.size	speed, 1
 513              	speed:
 514 0002 00       		.space	1
 515              		.type	value_PWM, %object
 516              		.size	value_PWM, 1
 517              	value_PWM:
 518 0003 00       		.space	1
 519              		.text
 520              	.Letext0:
 521              		.file 2 "Generated_Source\\PSoC4/cytypes.h"
 522              		.file 3 "Generated_Source\\PSoC4/Timer.h"
 523              		.file 4 "Generated_Source\\PSoC4/SW_1.h"
 524              		.file 5 "Generated_Source\\PSoC4/SW_2.h"
 525              		.file 6 "Generated_Source\\PSoC4/SW_3.h"
 526              		.file 7 "Generated_Source\\PSoC4/SW_4.h"
 527              		.file 8 "Generated_Source\\PSoC4/PWM.h"
 528              		.file 9 "Generated_Source\\PSoC4/Timer_Int.h"
 529              		.file 10 "Generated_Source\\PSoC4/SW_Int_1.h"
 530              		.file 11 "Generated_Source\\PSoC4/SW_Int_2.h"
ARM GAS  C:\Users\ADMIN\AppData\Local\Temp\ccF9m3PJ.s 			page 12


 531              		.file 12 "Generated_Source\\PSoC4/SW_Int_3.h"
 532              		.file 13 "Generated_Source\\PSoC4/SW_Int_4.h"
 533              		.file 14 "Generated_Source\\PSoC4/QuadDec.h"
 534              		.file 15 "Generated_Source\\PSoC4/Rotor.h"