ARM GAS  C:\Users\ADMIN\AppData\Local\Temp\ccbvL6Hn.s 			page 1


   1              		.syntax unified
   2              		.cpu cortex-m0
   3              		.fpu softvfp
   4              		.eabi_attribute 20, 1
   5              		.eabi_attribute 21, 1
   6              		.eabi_attribute 23, 3
   7              		.eabi_attribute 24, 1
   8              		.eabi_attribute 25, 1
   9              		.eabi_attribute 26, 1
  10              		.eabi_attribute 30, 1
  11              		.eabi_attribute 34, 0
  12              		.eabi_attribute 18, 4
  13              		.thumb
  14              		.syntax unified
  15              		.file	"lcd_speed_rotor.c"
  16              		.text
  17              	.Ltext0:
  18              		.cfi_sections	.debug_frame
  19              		.section	.text.enc_init,"ax",%progbits
  20              		.align	2
  21              		.global	enc_init
  22              		.code	16
  23              		.thumb_func
  24              		.type	enc_init, %function
  25              	enc_init:
  26              	.LFB35:
  27              		.file 1 "lcd_speed_rotor.c"
   1:lcd_speed_rotor.c **** #include "lab.h"
   2:lcd_speed_rotor.c **** #include "stdio.h"
   3:lcd_speed_rotor.c **** 
   4:lcd_speed_rotor.c **** static char buf1[17];
   5:lcd_speed_rotor.c **** static char buf2[17];
   6:lcd_speed_rotor.c **** 
   7:lcd_speed_rotor.c **** volatile uint8 status_set_color = 0; 
   8:lcd_speed_rotor.c **** int value_PWM;
   9:lcd_speed_rotor.c **** int speed;
  10:lcd_speed_rotor.c **** 
  11:lcd_speed_rotor.c **** uint8 time_red = 0;
  12:lcd_speed_rotor.c **** uint8 time_yellow = 0;
  13:lcd_speed_rotor.c **** uint8 time_green = 0;
  14:lcd_speed_rotor.c **** 
  15:lcd_speed_rotor.c **** void enc_init(void){
  28              		.loc 1 15 0
  29              		.cfi_startproc
  30              		@ args = 0, pretend = 0, frame = 0
  31              		@ frame_needed = 0, uses_anonymous_args = 0
  32 0000 10B5     		push	{r4, lr}
  33              		.cfi_def_cfa_offset 8
  34              		.cfi_offset 4, -8
  35              		.cfi_offset 14, -4
  16:lcd_speed_rotor.c ****     QuadDec_Start();
  36              		.loc 1 16 0
  37 0002 FFF7FEFF 		bl	QuadDec_Start
  38              	.LVL0:
  17:lcd_speed_rotor.c ****     QuadDec_WritePeriod(20);
  39              		.loc 1 17 0
  40 0006 1420     		movs	r0, #20
ARM GAS  C:\Users\ADMIN\AppData\Local\Temp\ccbvL6Hn.s 			page 2


  41 0008 FFF7FEFF 		bl	QuadDec_WritePeriod
  42              	.LVL1:
  18:lcd_speed_rotor.c **** }
  43              		.loc 1 18 0
  44              		@ sp needed
  45 000c 10BD     		pop	{r4, pc}
  46              		.cfi_endproc
  47              	.LFE35:
  48              		.size	enc_init, .-enc_init
  49 000e C046     		.section	.text.lcd_init,"ax",%progbits
  50              		.align	2
  51              		.global	lcd_init
  52              		.code	16
  53              		.thumb_func
  54              		.type	lcd_init, %function
  55              	lcd_init:
  56              	.LFB36:
  19:lcd_speed_rotor.c **** 
  20:lcd_speed_rotor.c **** void lcd_init(void){
  57              		.loc 1 20 0
  58              		.cfi_startproc
  59              		@ args = 0, pretend = 0, frame = 0
  60              		@ frame_needed = 0, uses_anonymous_args = 0
  61 0000 70B5     		push	{r4, r5, r6, lr}
  62              		.cfi_def_cfa_offset 16
  63              		.cfi_offset 4, -16
  64              		.cfi_offset 5, -12
  65              		.cfi_offset 6, -8
  66              		.cfi_offset 14, -4
  21:lcd_speed_rotor.c ****     LCD_Start();
  67              		.loc 1 21 0
  68 0002 FFF7FEFF 		bl	LCD_Start
  69              	.LVL2:
  22:lcd_speed_rotor.c ****     LCD_ClearDisplay();
  70              		.loc 1 22 0
  71 0006 0120     		movs	r0, #1
  72 0008 FFF7FEFF 		bl	LCD_WriteControl
  73              	.LVL3:
  23:lcd_speed_rotor.c ****     sprintf(buf1,"Stop PWM=50");
  74              		.loc 1 23 0
  75 000c 0E4C     		ldr	r4, .L3
  76 000e 0F4B     		ldr	r3, .L3+4
  77 0010 2200     		movs	r2, r4
  78 0012 23CB     		ldmia	r3!, {r0, r1, r5}
  79 0014 23C2     		stmia	r2!, {r0, r1, r5}
  24:lcd_speed_rotor.c ****     LCD_Position(0, 0);
  80              		.loc 1 24 0
  81 0016 0021     		movs	r1, #0
  82 0018 0020     		movs	r0, #0
  83 001a FFF7FEFF 		bl	LCD_Position
  84              	.LVL4:
  25:lcd_speed_rotor.c ****     LCD_PrintString(buf1);
  85              		.loc 1 25 0
  86 001e 2000     		movs	r0, r4
  87 0020 FFF7FEFF 		bl	LCD_PrintString
  88              	.LVL5:
  26:lcd_speed_rotor.c ****     sprintf(buf2,"Speed=Stop");
ARM GAS  C:\Users\ADMIN\AppData\Local\Temp\ccbvL6Hn.s 			page 3


  89              		.loc 1 26 0
  90 0024 1434     		adds	r4, r4, #20
  91 0026 0A4B     		ldr	r3, .L3+8
  92 0028 2200     		movs	r2, r4
  93 002a 03CB     		ldmia	r3!, {r0, r1}
  94 002c 03C2     		stmia	r2!, {r0, r1}
  95 002e 1900     		movs	r1, r3
  96 0030 1B88     		ldrh	r3, [r3]
  97 0032 1380     		strh	r3, [r2]
  98 0034 8B78     		ldrb	r3, [r1, #2]
  99 0036 9370     		strb	r3, [r2, #2]
  27:lcd_speed_rotor.c ****     LCD_Position(1, 0);
 100              		.loc 1 27 0
 101 0038 0021     		movs	r1, #0
 102 003a 0120     		movs	r0, #1
 103 003c FFF7FEFF 		bl	LCD_Position
 104              	.LVL6:
  28:lcd_speed_rotor.c ****     LCD_PrintString(buf2);
 105              		.loc 1 28 0
 106 0040 2000     		movs	r0, r4
 107 0042 FFF7FEFF 		bl	LCD_PrintString
 108              	.LVL7:
  29:lcd_speed_rotor.c **** }
 109              		.loc 1 29 0
 110              		@ sp needed
 111 0046 70BD     		pop	{r4, r5, r6, pc}
 112              	.L4:
 113              		.align	2
 114              	.L3:
 115 0048 00000000 		.word	.LANCHOR0
 116 004c 00000000 		.word	.LC1
 117 0050 0C000000 		.word	.LC3
 118              		.cfi_endproc
 119              	.LFE36:
 120              		.size	lcd_init, .-lcd_init
 121              		.section	.text.lcd_forward_rotor,"ax",%progbits
 122              		.align	2
 123              		.global	lcd_forward_rotor
 124              		.code	16
 125              		.thumb_func
 126              		.type	lcd_forward_rotor, %function
 127              	lcd_forward_rotor:
 128              	.LFB37:
  30:lcd_speed_rotor.c **** 
  31:lcd_speed_rotor.c **** 
  32:lcd_speed_rotor.c **** 
  33:lcd_speed_rotor.c **** void lcd_forward_rotor(void){
 129              		.loc 1 33 0
 130              		.cfi_startproc
 131              		@ args = 0, pretend = 0, frame = 0
 132              		@ frame_needed = 0, uses_anonymous_args = 0
 133 0000 10B5     		push	{r4, lr}
 134              		.cfi_def_cfa_offset 8
 135              		.cfi_offset 4, -8
 136              		.cfi_offset 14, -4
  34:lcd_speed_rotor.c ****     LCD_ClearDisplay();
 137              		.loc 1 34 0
ARM GAS  C:\Users\ADMIN\AppData\Local\Temp\ccbvL6Hn.s 			page 4


 138 0002 0120     		movs	r0, #1
 139 0004 FFF7FEFF 		bl	LCD_WriteControl
 140              	.LVL8:
  35:lcd_speed_rotor.c ****     sprintf(buf1,"Forward  PWM=%d",value_PWM);
 141              		.loc 1 35 0
 142 0008 0E4B     		ldr	r3, .L6
 143 000a 1A68     		ldr	r2, [r3]
 144 000c 0E4C     		ldr	r4, .L6+4
 145 000e 0F49     		ldr	r1, .L6+8
 146 0010 2000     		movs	r0, r4
 147 0012 FFF7FEFF 		bl	sprintf
 148              	.LVL9:
  36:lcd_speed_rotor.c ****     LCD_Position(0, 0);
 149              		.loc 1 36 0
 150 0016 0021     		movs	r1, #0
 151 0018 0020     		movs	r0, #0
 152 001a FFF7FEFF 		bl	LCD_Position
 153              	.LVL10:
  37:lcd_speed_rotor.c ****     LCD_PrintString(buf1);
 154              		.loc 1 37 0
 155 001e 2000     		movs	r0, r4
 156 0020 FFF7FEFF 		bl	LCD_PrintString
 157              	.LVL11:
  38:lcd_speed_rotor.c ****     sprintf(buf2,"Speed=%d",speed);
 158              		.loc 1 38 0
 159 0024 0A4B     		ldr	r3, .L6+12
 160 0026 1A68     		ldr	r2, [r3]
 161 0028 1434     		adds	r4, r4, #20
 162 002a 0A49     		ldr	r1, .L6+16
 163 002c 2000     		movs	r0, r4
 164 002e FFF7FEFF 		bl	sprintf
 165              	.LVL12:
  39:lcd_speed_rotor.c ****     LCD_Position(1, 0);
 166              		.loc 1 39 0
 167 0032 0021     		movs	r1, #0
 168 0034 0120     		movs	r0, #1
 169 0036 FFF7FEFF 		bl	LCD_Position
 170              	.LVL13:
  40:lcd_speed_rotor.c ****     LCD_PrintString(buf2);
 171              		.loc 1 40 0
 172 003a 2000     		movs	r0, r4
 173 003c FFF7FEFF 		bl	LCD_PrintString
 174              	.LVL14:
  41:lcd_speed_rotor.c **** }
 175              		.loc 1 41 0
 176              		@ sp needed
 177 0040 10BD     		pop	{r4, pc}
 178              	.L7:
 179 0042 C046     		.align	2
 180              	.L6:
 181 0044 00000000 		.word	value_PWM
 182 0048 00000000 		.word	.LANCHOR0
 183 004c 18000000 		.word	.LC7
 184 0050 00000000 		.word	speed
 185 0054 28000000 		.word	.LC11
 186              		.cfi_endproc
 187              	.LFE37:
ARM GAS  C:\Users\ADMIN\AppData\Local\Temp\ccbvL6Hn.s 			page 5


 188              		.size	lcd_forward_rotor, .-lcd_forward_rotor
 189              		.section	.text.lcd_back_rotor,"ax",%progbits
 190              		.align	2
 191              		.global	lcd_back_rotor
 192              		.code	16
 193              		.thumb_func
 194              		.type	lcd_back_rotor, %function
 195              	lcd_back_rotor:
 196              	.LFB38:
  42:lcd_speed_rotor.c **** 
  43:lcd_speed_rotor.c **** void lcd_back_rotor(void){
 197              		.loc 1 43 0
 198              		.cfi_startproc
 199              		@ args = 0, pretend = 0, frame = 0
 200              		@ frame_needed = 0, uses_anonymous_args = 0
 201 0000 10B5     		push	{r4, lr}
 202              		.cfi_def_cfa_offset 8
 203              		.cfi_offset 4, -8
 204              		.cfi_offset 14, -4
  44:lcd_speed_rotor.c ****     LCD_ClearDisplay();
 205              		.loc 1 44 0
 206 0002 0120     		movs	r0, #1
 207 0004 FFF7FEFF 		bl	LCD_WriteControl
 208              	.LVL15:
  45:lcd_speed_rotor.c ****     sprintf(buf1,"Back  PWM=%d",value_PWM);
 209              		.loc 1 45 0
 210 0008 0E4B     		ldr	r3, .L9
 211 000a 1A68     		ldr	r2, [r3]
 212 000c 0E4C     		ldr	r4, .L9+4
 213 000e 0F49     		ldr	r1, .L9+8
 214 0010 2000     		movs	r0, r4
 215 0012 FFF7FEFF 		bl	sprintf
 216              	.LVL16:
  46:lcd_speed_rotor.c ****     LCD_Position(0, 0);
 217              		.loc 1 46 0
 218 0016 0021     		movs	r1, #0
 219 0018 0020     		movs	r0, #0
 220 001a FFF7FEFF 		bl	LCD_Position
 221              	.LVL17:
  47:lcd_speed_rotor.c ****     LCD_PrintString(buf1);
 222              		.loc 1 47 0
 223 001e 2000     		movs	r0, r4
 224 0020 FFF7FEFF 		bl	LCD_PrintString
 225              	.LVL18:
  48:lcd_speed_rotor.c ****     sprintf(buf2,"Speed=%d",speed);
 226              		.loc 1 48 0
 227 0024 0A4B     		ldr	r3, .L9+12
 228 0026 1A68     		ldr	r2, [r3]
 229 0028 1434     		adds	r4, r4, #20
 230 002a 0A49     		ldr	r1, .L9+16
 231 002c 2000     		movs	r0, r4
 232 002e FFF7FEFF 		bl	sprintf
 233              	.LVL19:
  49:lcd_speed_rotor.c ****     LCD_Position(1, 0);
 234              		.loc 1 49 0
 235 0032 0021     		movs	r1, #0
 236 0034 0120     		movs	r0, #1
ARM GAS  C:\Users\ADMIN\AppData\Local\Temp\ccbvL6Hn.s 			page 6


 237 0036 FFF7FEFF 		bl	LCD_Position
 238              	.LVL20:
  50:lcd_speed_rotor.c ****     LCD_PrintString(buf2);
 239              		.loc 1 50 0
 240 003a 2000     		movs	r0, r4
 241 003c FFF7FEFF 		bl	LCD_PrintString
 242              	.LVL21:
  51:lcd_speed_rotor.c **** }
 243              		.loc 1 51 0
 244              		@ sp needed
 245 0040 10BD     		pop	{r4, pc}
 246              	.L10:
 247 0042 C046     		.align	2
 248              	.L9:
 249 0044 00000000 		.word	value_PWM
 250 0048 00000000 		.word	.LANCHOR0
 251 004c 34000000 		.word	.LC15
 252 0050 00000000 		.word	speed
 253 0054 28000000 		.word	.LC11
 254              		.cfi_endproc
 255              	.LFE38:
 256              		.size	lcd_back_rotor, .-lcd_back_rotor
 257              		.section	.text.definition_set_color,"ax",%progbits
 258              		.align	2
 259              		.global	definition_set_color
 260              		.code	16
 261              		.thumb_func
 262              		.type	definition_set_color, %function
 263              	definition_set_color:
 264              	.LFB39:
  52:lcd_speed_rotor.c **** 
  53:lcd_speed_rotor.c **** void definition_set_color(void){
 265              		.loc 1 53 0
 266              		.cfi_startproc
 267              		@ args = 0, pretend = 0, frame = 0
 268              		@ frame_needed = 0, uses_anonymous_args = 0
 269 0000 10B5     		push	{r4, lr}
 270              		.cfi_def_cfa_offset 8
 271              		.cfi_offset 4, -8
 272              		.cfi_offset 14, -4
  54:lcd_speed_rotor.c ****     QuadDec_WriteCounter(0);
 273              		.loc 1 54 0
 274 0002 0020     		movs	r0, #0
 275 0004 FFF7FEFF 		bl	QuadDec_WriteCounter
 276              	.LVL22:
  55:lcd_speed_rotor.c ****     if(1 == status_set_color){
 277              		.loc 1 55 0
 278 0008 2523     		movs	r3, #37
 279 000a 0B4A     		ldr	r2, .L15
 280 000c D35C     		ldrb	r3, [r2, r3]
 281 000e 012B     		cmp	r3, #1
 282 0010 02D1     		bne	.L12
  56:lcd_speed_rotor.c ****         lcd_forward_rotor();
 283              		.loc 1 56 0
 284 0012 FFF7FEFF 		bl	lcd_forward_rotor
 285              	.LVL23:
 286 0016 0EE0     		b	.L11
ARM GAS  C:\Users\ADMIN\AppData\Local\Temp\ccbvL6Hn.s 			page 7


 287              	.L12:
  57:lcd_speed_rotor.c ****     }else if(2 == status_set_color){
 288              		.loc 1 57 0
 289 0018 2523     		movs	r3, #37
 290 001a 074A     		ldr	r2, .L15
 291 001c D35C     		ldrb	r3, [r2, r3]
 292 001e 022B     		cmp	r3, #2
 293 0020 05D1     		bne	.L14
  58:lcd_speed_rotor.c ****         time_red =4;// QuadDec_ReadCounter();
 294              		.loc 1 58 0
 295 0022 0421     		movs	r1, #4
 296 0024 2433     		adds	r3, r3, #36
 297 0026 D154     		strb	r1, [r2, r3]
  59:lcd_speed_rotor.c ****         lcd_back_rotor();
 298              		.loc 1 59 0
 299 0028 FFF7FEFF 		bl	lcd_back_rotor
 300              	.LVL24:
 301 002c 03E0     		b	.L11
 302              	.L14:
  60:lcd_speed_rotor.c ****     }else{
  61:lcd_speed_rotor.c ****         status_set_color = 0;
 303              		.loc 1 61 0
 304 002e 0021     		movs	r1, #0
 305 0030 2523     		movs	r3, #37
 306 0032 014A     		ldr	r2, .L15
 307 0034 D154     		strb	r1, [r2, r3]
 308              	.L11:
  62:lcd_speed_rotor.c ****     } 
  63:lcd_speed_rotor.c **** }...
 309              		.loc 1 63 0
 310              		@ sp needed
 311 0036 10BD     		pop	{r4, pc}
 312              	.L16:
 313              		.align	2
 314              	.L15:
 315 0038 00000000 		.word	.LANCHOR0
 316              		.cfi_endproc
 317              	.LFE39:
 318              		.size	definition_set_color, .-definition_set_color
 319              		.global	time_green
 320              		.global	time_yellow
 321              		.global	time_red
 322              		.comm	speed,4,4
 323              		.comm	value_PWM,4,4
 324              		.global	status_set_color
 325              		.section	.rodata.str1.4,"aMS",%progbits,1
 326              		.align	2
 327              	.LC1:
 328 0000 53746F70 		.ascii	"Stop PWM=50\000"
 328      2050574D 
 328      3D353000 
 329              	.LC3:
 330 000c 53706565 		.ascii	"Speed=Stop\000"
 330      643D5374 
 330      6F7000
 331 0017 00       		.space	1
 332              	.LC7:
ARM GAS  C:\Users\ADMIN\AppData\Local\Temp\ccbvL6Hn.s 			page 8


 333 0018 466F7277 		.ascii	"Forward  PWM=%d\000"
 333      61726420 
 333      2050574D 
 333      3D256400 
 334              	.LC11:
 335 0028 53706565 		.ascii	"Speed=%d\000"
 335      643D2564 
 335      00
 336 0031 000000   		.space	3
 337              	.LC15:
 338 0034 4261636B 		.ascii	"Back  PWM=%d\000"
 338      20205057 
 338      4D3D2564 
 338      00
 339              		.bss
 340              		.align	2
 341              		.set	.LANCHOR0,. + 0
 342              		.type	buf1, %object
 343              		.size	buf1, 17
 344              	buf1:
 345 0000 00000000 		.space	17
 345      00000000 
 345      00000000 
 345      00000000 
 345      00
 346 0011 000000   		.space	3
 347              		.type	buf2, %object
 348              		.size	buf2, 17
 349              	buf2:
 350 0014 00000000 		.space	17
 350      00000000 
 350      00000000 
 350      00000000 
 350      00
 351              		.type	status_set_color, %object
 352              		.size	status_set_color, 1
 353              	status_set_color:
 354 0025 00       		.space	1
 355              		.type	time_red, %object
 356              		.size	time_red, 1
 357              	time_red:
 358 0026 00       		.space	1
 359              		.type	time_green, %object
 360              		.size	time_green, 1
 361              	time_green:
 362 0027 00       		.space	1
 363              		.type	time_yellow, %object
 364              		.size	time_yellow, 1
 365              	time_yellow:
 366 0028 00       		.space	1
 367              		.text
 368              	.Letext0:
 369              		.file 2 "Generated_Source\\PSoC4/QuadDec.h"
 370              		.file 3 "Generated_Source\\PSoC4/LCD.h"
 371              		.file 4 "c:\\program files (x86)\\cypress\\psoc creator\\4.2\\psoc creator\\import\\gnu\\arm\\5.4.
 372              		.file 5 "Generated_Source\\PSoC4/cytypes.h"