ARM GAS  C:\Users\ADMIN\AppData\Local\Temp\ccVifziV.s 			page 1


   1              		.syntax unified
   2              		.cpu cortex-m0
   3              		.fpu softvfp
   4              		.eabi_attribute 20, 1
   5              		.eabi_attribute 21, 1
   6              		.eabi_attribute 23, 3
   7              		.eabi_attribute 24, 1
   8              		.eabi_attribute 25, 1
   9              		.eabi_attribute 26, 1
  10              		.eabi_attribute 30, 1
  11              		.eabi_attribute 34, 0
  12              		.eabi_attribute 18, 4
  13              		.thumb
  14              		.syntax unified
  15              		.file	"stage_rotor.c"
  16              		.text
  17              	.Ltext0:
  18              		.cfi_sections	.debug_frame
  19              		.section	.text.stage_1,"ax",%progbits
  20              		.align	2
  21              		.global	stage_1
  22              		.code	16
  23              		.thumb_func
  24              		.type	stage_1, %function
  25              	stage_1:
  26              	.LFB34:
  27              		.file 1 "stage_rotor.c"
   1:stage_rotor.c **** #include "lab.h"
   2:stage_rotor.c **** 
   3:stage_rotor.c **** void stage_1(void){
  28              		.loc 1 3 0
  29              		.cfi_startproc
  30              		@ args = 0, pretend = 0, frame = 0
  31              		@ frame_needed = 0, uses_anonymous_args = 0
  32 0000 10B5     		push	{r4, lr}
  33              		.cfi_def_cfa_offset 8
  34              		.cfi_offset 4, -8
  35              		.cfi_offset 14, -4
   4:stage_rotor.c ****         Pin_1_Write(1);
  36              		.loc 1 4 0
  37 0002 0120     		movs	r0, #1
  38 0004 FFF7FEFF 		bl	Pin_1_Write
  39              	.LVL0:
   5:stage_rotor.c ****         Pin_2_Write(1);
  40              		.loc 1 5 0
  41 0008 0120     		movs	r0, #1
  42 000a FFF7FEFF 		bl	Pin_2_Write
  43              	.LVL1:
   6:stage_rotor.c ****         Pin_3_Write(0);
  44              		.loc 1 6 0
  45 000e 0020     		movs	r0, #0
  46 0010 FFF7FEFF 		bl	Pin_3_Write
  47              	.LVL2:
   7:stage_rotor.c ****         Pin_4_Write(0);    
  48              		.loc 1 7 0
  49 0014 0020     		movs	r0, #0
  50 0016 FFF7FEFF 		bl	Pin_4_Write
ARM GAS  C:\Users\ADMIN\AppData\Local\Temp\ccVifziV.s 			page 2


  51              	.LVL3:
   8:stage_rotor.c **** }
  52              		.loc 1 8 0
  53              		@ sp needed
  54 001a 10BD     		pop	{r4, pc}
  55              		.cfi_endproc
  56              	.LFE34:
  57              		.size	stage_1, .-stage_1
  58              		.section	.text.stage_2,"ax",%progbits
  59              		.align	2
  60              		.global	stage_2
  61              		.code	16
  62              		.thumb_func
  63              		.type	stage_2, %function
  64              	stage_2:
  65              	.LFB35:
   9:stage_rotor.c **** 
  10:stage_rotor.c **** void stage_2(void){
  66              		.loc 1 10 0
  67              		.cfi_startproc
  68              		@ args = 0, pretend = 0, frame = 0
  69              		@ frame_needed = 0, uses_anonymous_args = 0
  70 0000 10B5     		push	{r4, lr}
  71              		.cfi_def_cfa_offset 8
  72              		.cfi_offset 4, -8
  73              		.cfi_offset 14, -4
  11:stage_rotor.c ****         Pin_1_Write(0);
  74              		.loc 1 11 0
  75 0002 0020     		movs	r0, #0
  76 0004 FFF7FEFF 		bl	Pin_1_Write
  77              	.LVL4:
  12:stage_rotor.c ****         Pin_2_Write(1);
  78              		.loc 1 12 0
  79 0008 0120     		movs	r0, #1
  80 000a FFF7FEFF 		bl	Pin_2_Write
  81              	.LVL5:
  13:stage_rotor.c ****         Pin_3_Write(0);
  82              		.loc 1 13 0
  83 000e 0020     		movs	r0, #0
  84 0010 FFF7FEFF 		bl	Pin_3_Write
  85              	.LVL6:
  14:stage_rotor.c ****         Pin_4_Write(0);    
  86              		.loc 1 14 0
  87 0014 0020     		movs	r0, #0
  88 0016 FFF7FEFF 		bl	Pin_4_Write
  89              	.LVL7:
  15:stage_rotor.c **** }
  90              		.loc 1 15 0
  91              		@ sp needed
  92 001a 10BD     		pop	{r4, pc}
  93              		.cfi_endproc
  94              	.LFE35:
  95              		.size	stage_2, .-stage_2
  96              		.section	.text.stage_3,"ax",%progbits
  97              		.align	2
  98              		.global	stage_3
  99              		.code	16
ARM GAS  C:\Users\ADMIN\AppData\Local\Temp\ccVifziV.s 			page 3


 100              		.thumb_func
 101              		.type	stage_3, %function
 102              	stage_3:
 103              	.LFB36:
  16:stage_rotor.c **** 
  17:stage_rotor.c **** void stage_3(void){
 104              		.loc 1 17 0
 105              		.cfi_startproc
 106              		@ args = 0, pretend = 0, frame = 0
 107              		@ frame_needed = 0, uses_anonymous_args = 0
 108 0000 10B5     		push	{r4, lr}
 109              		.cfi_def_cfa_offset 8
 110              		.cfi_offset 4, -8
 111              		.cfi_offset 14, -4
  18:stage_rotor.c ****         Pin_1_Write(0);
 112              		.loc 1 18 0
 113 0002 0020     		movs	r0, #0
 114 0004 FFF7FEFF 		bl	Pin_1_Write
 115              	.LVL8:
  19:stage_rotor.c ****         Pin_2_Write(1);
 116              		.loc 1 19 0
 117 0008 0120     		movs	r0, #1
 118 000a FFF7FEFF 		bl	Pin_2_Write
 119              	.LVL9:
  20:stage_rotor.c ****         Pin_3_Write(1);
 120              		.loc 1 20 0
 121 000e 0120     		movs	r0, #1
 122 0010 FFF7FEFF 		bl	Pin_3_Write
 123              	.LVL10:
  21:stage_rotor.c ****         Pin_4_Write(0);    
 124              		.loc 1 21 0
 125 0014 0020     		movs	r0, #0
 126 0016 FFF7FEFF 		bl	Pin_4_Write
 127              	.LVL11:
  22:stage_rotor.c **** }
 128              		.loc 1 22 0
 129              		@ sp needed
 130 001a 10BD     		pop	{r4, pc}
 131              		.cfi_endproc
 132              	.LFE36:
 133              		.size	stage_3, .-stage_3
 134              		.section	.text.stage_4,"ax",%progbits
 135              		.align	2
 136              		.global	stage_4
 137              		.code	16
 138              		.thumb_func
 139              		.type	stage_4, %function
 140              	stage_4:
 141              	.LFB37:
  23:stage_rotor.c **** 
  24:stage_rotor.c **** void stage_4(void){
 142              		.loc 1 24 0
 143              		.cfi_startproc
 144              		@ args = 0, pretend = 0, frame = 0
 145              		@ frame_needed = 0, uses_anonymous_args = 0
 146 0000 10B5     		push	{r4, lr}
 147              		.cfi_def_cfa_offset 8
ARM GAS  C:\Users\ADMIN\AppData\Local\Temp\ccVifziV.s 			page 4


 148              		.cfi_offset 4, -8
 149              		.cfi_offset 14, -4
  25:stage_rotor.c ****         Pin_1_Write(0);
 150              		.loc 1 25 0
 151 0002 0020     		movs	r0, #0
 152 0004 FFF7FEFF 		bl	Pin_1_Write
 153              	.LVL12:
  26:stage_rotor.c ****         Pin_2_Write(0);
 154              		.loc 1 26 0
 155 0008 0020     		movs	r0, #0
 156 000a FFF7FEFF 		bl	Pin_2_Write
 157              	.LVL13:
  27:stage_rotor.c ****         Pin_3_Write(1);
 158              		.loc 1 27 0
 159 000e 0120     		movs	r0, #1
 160 0010 FFF7FEFF 		bl	Pin_3_Write
 161              	.LVL14:
  28:stage_rotor.c ****         Pin_4_Write(0);    
 162              		.loc 1 28 0
 163 0014 0020     		movs	r0, #0
 164 0016 FFF7FEFF 		bl	Pin_4_Write
 165              	.LVL15:
  29:stage_rotor.c **** }
 166              		.loc 1 29 0
 167              		@ sp needed
 168 001a 10BD     		pop	{r4, pc}
 169              		.cfi_endproc
 170              	.LFE37:
 171              		.size	stage_4, .-stage_4
 172              		.section	.text.stage_5,"ax",%progbits
 173              		.align	2
 174              		.global	stage_5
 175              		.code	16
 176              		.thumb_func
 177              		.type	stage_5, %function
 178              	stage_5:
 179              	.LFB38:
  30:stage_rotor.c **** 
  31:stage_rotor.c **** void stage_5(void){
 180              		.loc 1 31 0
 181              		.cfi_startproc
 182              		@ args = 0, pretend = 0, frame = 0
 183              		@ frame_needed = 0, uses_anonymous_args = 0
 184 0000 10B5     		push	{r4, lr}
 185              		.cfi_def_cfa_offset 8
 186              		.cfi_offset 4, -8
 187              		.cfi_offset 14, -4
  32:stage_rotor.c ****         Pin_1_Write(0);
 188              		.loc 1 32 0
 189 0002 0020     		movs	r0, #0
 190 0004 FFF7FEFF 		bl	Pin_1_Write
 191              	.LVL16:
  33:stage_rotor.c ****         Pin_2_Write(0);
 192              		.loc 1 33 0
 193 0008 0020     		movs	r0, #0
 194 000a FFF7FEFF 		bl	Pin_2_Write
 195              	.LVL17:
ARM GAS  C:\Users\ADMIN\AppData\Local\Temp\ccVifziV.s 			page 5


  34:stage_rotor.c ****         Pin_3_Write(1);
 196              		.loc 1 34 0
 197 000e 0120     		movs	r0, #1
 198 0010 FFF7FEFF 		bl	Pin_3_Write
 199              	.LVL18:
  35:stage_rotor.c ****         Pin_4_Write(1);    
 200              		.loc 1 35 0
 201 0014 0120     		movs	r0, #1
 202 0016 FFF7FEFF 		bl	Pin_4_Write
 203              	.LVL19:
  36:stage_rotor.c **** }
 204              		.loc 1 36 0
 205              		@ sp needed
 206 001a 10BD     		pop	{r4, pc}
 207              		.cfi_endproc
 208              	.LFE38:
 209              		.size	stage_5, .-stage_5
 210              		.section	.text.stage_6,"ax",%progbits
 211              		.align	2
 212              		.global	stage_6
 213              		.code	16
 214              		.thumb_func
 215              		.type	stage_6, %function
 216              	stage_6:
 217              	.LFB39:
  37:stage_rotor.c **** 
  38:stage_rotor.c **** void stage_6(void){
 218              		.loc 1 38 0
 219              		.cfi_startproc
 220              		@ args = 0, pretend = 0, frame = 0
 221              		@ frame_needed = 0, uses_anonymous_args = 0
 222 0000 10B5     		push	{r4, lr}
 223              		.cfi_def_cfa_offset 8
 224              		.cfi_offset 4, -8
 225              		.cfi_offset 14, -4
  39:stage_rotor.c ****         Pin_1_Write(0);
 226              		.loc 1 39 0
 227 0002 0020     		movs	r0, #0
 228 0004 FFF7FEFF 		bl	Pin_1_Write
 229              	.LVL20:
  40:stage_rotor.c ****         Pin_2_Write(0);
 230              		.loc 1 40 0
 231 0008 0020     		movs	r0, #0
 232 000a FFF7FEFF 		bl	Pin_2_Write
 233              	.LVL21:
  41:stage_rotor.c ****         Pin_3_Write(0);
 234              		.loc 1 41 0
 235 000e 0020     		movs	r0, #0
 236 0010 FFF7FEFF 		bl	Pin_3_Write
 237              	.LVL22:
  42:stage_rotor.c ****         Pin_4_Write(1);    
 238              		.loc 1 42 0
 239 0014 0120     		movs	r0, #1
 240 0016 FFF7FEFF 		bl	Pin_4_Write
 241              	.LVL23:
  43:stage_rotor.c **** }
 242              		.loc 1 43 0
ARM GAS  C:\Users\ADMIN\AppData\Local\Temp\ccVifziV.s 			page 6


 243              		@ sp needed
 244 001a 10BD     		pop	{r4, pc}
 245              		.cfi_endproc
 246              	.LFE39:
 247              		.size	stage_6, .-stage_6
 248              		.section	.text.stage_7,"ax",%progbits
 249              		.align	2
 250              		.global	stage_7
 251              		.code	16
 252              		.thumb_func
 253              		.type	stage_7, %function
 254              	stage_7:
 255              	.LFB40:
  44:stage_rotor.c **** 
  45:stage_rotor.c **** void stage_7(void){
 256              		.loc 1 45 0
 257              		.cfi_startproc
 258              		@ args = 0, pretend = 0, frame = 0
 259              		@ frame_needed = 0, uses_anonymous_args = 0
 260 0000 10B5     		push	{r4, lr}
 261              		.cfi_def_cfa_offset 8
 262              		.cfi_offset 4, -8
 263              		.cfi_offset 14, -4
  46:stage_rotor.c ****         Pin_1_Write(1);
 264              		.loc 1 46 0
 265 0002 0120     		movs	r0, #1
 266 0004 FFF7FEFF 		bl	Pin_1_Write
 267              	.LVL24:
  47:stage_rotor.c ****         Pin_2_Write(0);
 268              		.loc 1 47 0
 269 0008 0020     		movs	r0, #0
 270 000a FFF7FEFF 		bl	Pin_2_Write
 271              	.LVL25:
  48:stage_rotor.c ****         Pin_3_Write(0);
 272              		.loc 1 48 0
 273 000e 0020     		movs	r0, #0
 274 0010 FFF7FEFF 		bl	Pin_3_Write
 275              	.LVL26:
  49:stage_rotor.c ****         Pin_4_Write(1);    
 276              		.loc 1 49 0
 277 0014 0120     		movs	r0, #1
 278 0016 FFF7FEFF 		bl	Pin_4_Write
 279              	.LVL27:
  50:stage_rotor.c **** }
 280              		.loc 1 50 0
 281              		@ sp needed
 282 001a 10BD     		pop	{r4, pc}
 283              		.cfi_endproc
 284              	.LFE40:
 285              		.size	stage_7, .-stage_7
 286              		.section	.text.stage_8,"ax",%progbits
 287              		.align	2
 288              		.global	stage_8
 289              		.code	16
 290              		.thumb_func
 291              		.type	stage_8, %function
 292              	stage_8:
ARM GAS  C:\Users\ADMIN\AppData\Local\Temp\ccVifziV.s 			page 7


 293              	.LFB41:
  51:stage_rotor.c **** 
  52:stage_rotor.c **** void stage_8(void){
 294              		.loc 1 52 0
 295              		.cfi_startproc
 296              		@ args = 0, pretend = 0, frame = 0
 297              		@ frame_needed = 0, uses_anonymous_args = 0
 298 0000 10B5     		push	{r4, lr}
 299              		.cfi_def_cfa_offset 8
 300              		.cfi_offset 4, -8
 301              		.cfi_offset 14, -4
  53:stage_rotor.c ****         Pin_1_Write(1);
 302              		.loc 1 53 0
 303 0002 0120     		movs	r0, #1
 304 0004 FFF7FEFF 		bl	Pin_1_Write
 305              	.LVL28:
  54:stage_rotor.c ****         Pin_2_Write(0);
 306              		.loc 1 54 0
 307 0008 0020     		movs	r0, #0
 308 000a FFF7FEFF 		bl	Pin_2_Write
 309              	.LVL29:
  55:stage_rotor.c ****         Pin_3_Write(0);
 310              		.loc 1 55 0
 311 000e 0020     		movs	r0, #0
 312 0010 FFF7FEFF 		bl	Pin_3_Write
 313              	.LVL30:
  56:stage_rotor.c ****         Pin_4_Write(0);    
 314              		.loc 1 56 0
 315 0014 0020     		movs	r0, #0
 316 0016 FFF7FEFF 		bl	Pin_4_Write
 317              	.LVL31:
  57:stage_rotor.c **** }
 318              		.loc 1 57 0
 319              		@ sp needed
 320 001a 10BD     		pop	{r4, pc}
 321              		.cfi_endproc
 322              	.LFE41:
 323              		.size	stage_8, .-stage_8
 324              		.global	stage_list
 325              		.data
 326              		.align	2
 327              		.type	stage_list, %object
 328              		.size	stage_list, 32
 329              	stage_list:
 330 0000 00000000 		.word	stage_1
 331 0004 00000000 		.word	stage_2
 332 0008 00000000 		.word	stage_3
 333 000c 00000000 		.word	stage_4
 334 0010 00000000 		.word	stage_5
 335 0014 00000000 		.word	stage_6
 336 0018 00000000 		.word	stage_7
 337 001c 00000000 		.word	stage_8
 338              		.text
 339              	.Letext0:
 340              		.file 2 "Generated_Source\\PSoC4/Pin_1.h"
 341              		.file 3 "Generated_Source\\PSoC4/Pin_2.h"
 342              		.file 4 "Generated_Source\\PSoC4/Pin_3.h"
ARM GAS  C:\Users\ADMIN\AppData\Local\Temp\ccVifziV.s 			page 8


 343              		.file 5 "Generated_Source\\PSoC4/Pin_4.h"